 0x000000000000000e (SONAME)             Library soname: [liblc0_lib.so]
__bss_start B
_edata D
_end B
_fini T
_init T
_Z13GetVersionIntiii T
_Z13GetVersionStriiiRKNSt7__cxx1112basic_stringIcSt11char_traitsIcESaIcEEE T
_Z16sourceCode_sgemmB5cxx11 B
_ZGVN2cl12CommandQueue8default_E V
_ZGVN2cl6Device8default_E V
_ZGVN2cl7Context8default_E V
_ZGVN2cl8Platform8default_E V
_ZN13OpenCLBuffers12innerproductERN2cl6BufferEN9__gnu_cxx17__normal_iteratorIPKS1_St6vectorIS1_SaIS1_EEEESA_S2_iiii T
_ZN13OpenCLBuffers18squeeze_excitationEiiRN2cl6BufferES2_S2_N9__gnu_cxx17__normal_iteratorIPKS1_St6vectorIS1_SaIS1_EEEES2_i T
_ZN13OpenCLBuffers7forwardERKSt6vectorIfSaIfEERS2_S5_i T
_ZN13OpenCLBuffers9convolve1EiiRN2cl6BufferES2_S2_N9__gnu_cxx17__normal_iteratorIPKS1_St6vectorIS1_SaIS1_EEEESA_i T
_ZN13OpenCLBuffers9convolve3EiiRN2cl6BufferES2_S2_S2_N9__gnu_cxx17__normal_iteratorIPKS1_St6vectorIS1_SaIS1_EEEEPS1_SA_bbbbi T
_ZN13OpenCLBuffers9policymapEiRKN2cl6BufferERS1_S3_iii T
_ZN13OpenCLBuffersC1ERK14OpenCL_Network T
_ZN13OpenCLBuffersC2ERK14OpenCL_Network T
_ZN14OpenCL_Network11add_weightsEmmPKf T
_ZN14OpenCL_Network17add_weights_shortEmmPKs T
_ZN28protobuf_proto_2fnet_2eproto11TableStruct7offsetsE R
_ZN28protobuf_proto_2fnet_2eproto14AddDescriptorsEv T
_ZN28protobuf_proto_2fnet_2eproto15InitDefaultsNetEv T
_ZN28protobuf_proto_2fnet_2eproto18AddDescriptorsImplEv T
_ZN28protobuf_proto_2fnet_2eproto18InitDefaultsFormatEv T
_ZN28protobuf_proto_2fnet_2eproto19file_level_metadataE B
_ZN28protobuf_proto_2fnet_2eproto19InitDefaultsNetImplEv T
_ZN28protobuf_proto_2fnet_2eproto19InitDefaultsWeightsEv T
_ZN28protobuf_proto_2fnet_2eproto22InitDefaultsFormatImplEv T
_ZN28protobuf_proto_2fnet_2eproto22protobuf_RegisterTypesERKNSt7__cxx1112basic_stringIcSt11char_traitsIcESaIcEEE T
_ZN28protobuf_proto_2fnet_2eproto23InitDefaultsWeightsImplEv T
_ZN28protobuf_proto_2fnet_2eproto25InitDefaultsEngineVersionEv T
_ZN28protobuf_proto_2fnet_2eproto25InitDefaultsNetworkFormatEv T
_ZN28protobuf_proto_2fnet_2eproto25InitDefaultsWeights_LayerEv T
_ZN28protobuf_proto_2fnet_2eproto26InitDefaultsTrainingParamsEv T
_ZN28protobuf_proto_2fnet_2eproto26InitDefaultsWeights_SEunitEv T
_ZN28protobuf_proto_2fnet_2eproto26protobuf_AssignDescriptorsEv T
_ZN28protobuf_proto_2fnet_2eproto27file_level_enum_descriptorsE B
_ZN28protobuf_proto_2fnet_2eproto28InitDefaultsWeights_ResidualEv T
_ZN28protobuf_proto_2fnet_2eproto29InitDefaultsEngineVersionImplEv T
_ZN28protobuf_proto_2fnet_2eproto29InitDefaultsNetworkFormatImplEv T
_ZN28protobuf_proto_2fnet_2eproto29InitDefaultsWeights_ConvBlockEv T
_ZN28protobuf_proto_2fnet_2eproto29InitDefaultsWeights_LayerImplEv T
_ZN28protobuf_proto_2fnet_2eproto29static_descriptor_initializerE B
_ZN28protobuf_proto_2fnet_2eproto30InitDefaultsTrainingParamsImplEv T
_ZN28protobuf_proto_2fnet_2eproto30InitDefaultsWeights_SEunitImplEv T
_ZN28protobuf_proto_2fnet_2eproto30protobuf_AssignDescriptorsOnceEv T
_ZN28protobuf_proto_2fnet_2eproto32InitDefaultsWeights_ResidualImplEv T
_ZN28protobuf_proto_2fnet_2eproto33InitDefaultsWeights_ConvBlockImplEv T
_ZN2cl10BuildErrorC1EiPKcRKSt6vectorISt4pairINS_6DeviceENSt7__cxx1112basic_stringIcSt11char_traitsIcESaIcEEEESaISC_EE W
_ZN2cl10BuildErrorC2EiPKcRKSt6vectorISt4pairINS_6DeviceENSt7__cxx1112basic_stringIcSt11char_traitsIcESaIcEEEESaISC_EE W
_ZN2cl10BuildErrorD0Ev W
_ZN2cl10BuildErrorD1Ev W
_ZN2cl10BuildErrorD2Ev W
_ZN2cl12CommandQueue14default_error_E V
_ZN2cl12CommandQueue20default_initialized_E V
_ZN2cl12CommandQueue8default_E V
_ZN2cl12CommandQueueD1Ev W
_ZN2cl12CommandQueueD2Ev W
_ZN2cl5ErrorD0Ev W
_ZN2cl5ErrorD1Ev W
_ZN2cl5ErrorD2Ev W
_ZN2cl6detail7WrapperIP13_cl_device_idEaSERKS4_ W
_ZN2cl6detail7WrapperIP13_cl_device_idEC1ERKS4_ W
_ZN2cl6detail7WrapperIP13_cl_device_idEC2ERKS4_ W
_ZN2cl6Device14default_error_E V
_ZN2cl6Device20default_initialized_E V
_ZN2cl6Device8default_E V
_ZN2cl6DeviceD1Ev W
_ZN2cl6DeviceD2Ev W
_ZN2cl7Context14default_error_E V
_ZN2cl7Context20default_initialized_E V
_ZN2cl7Context8default_E V
_ZN2cl7ContextD1Ev W
_ZN2cl7ContextD2Ev W
_ZN2cl8Platform14default_error_E V
_ZN2cl8Platform20default_initialized_E V
_ZN2cl8Platform3getEPSt6vectorIS0_SaIS0_EE W
_ZN2cl8Platform8default_E V
_ZN2cl8PlatformD1Ev W
_ZN2cl8PlatformD2Ev W
_ZN5Tuner10tune_sgemmB5cxx11Eiiiii T
_ZN5Tuner17load_sgemm_tunersB5cxx11Eiiii T
_ZN5Tuner18store_sgemm_tunersEiiiiNSt7__cxx1112basic_stringIcSt11char_traitsIcESaIcEEE T
_ZN5Tuner18valid_config_sgemmESt3mapINSt7__cxx1112basic_stringIcSt11char_traitsIcESaIcEEEmSt4lessIS6_ESaISt4pairIKS6_mEEEb T
_ZN5Tuner20parameters_to_stringERKSt3mapINSt7__cxx1112basic_stringIcSt11char_traitsIcESaIcEEEmSt4lessIS6_ESaISt4pairIKS6_mEEE T
_ZN5Tuner21get_parameters_by_intERKSt6vectorISt4pairINSt7__cxx1112basic_stringIcSt11char_traitsIcESaIcEEES0_ImSaImEEESaISA_EEi T
_ZN5Tuner21parameters_to_definesERKSt3mapINSt7__cxx1112basic_stringIcSt11char_traitsIcESaIcEEEmSt4lessIS6_ESaISt4pairIKS6_mEEE T
_ZN5Tuner22sgemm_tuners_from_lineENSt7__cxx1112basic_stringIcSt11char_traitsIcESaIcEEEiiii T
_ZN6google8protobuf5Arena3OwnIN8pblczero3NetEEEvPT_ W
_ZN6google8protobuf8internal14ArenaStringPtr21CreateInstanceNoArenaEPKNSt7__cxx1112basic_stringIcSt11char_traitsIcESaIcEEE W
_ZN6google8protobuf8internal14WireFormatLite11ReadMessageEPNS0_2io16CodedInputStreamEPNS0_11MessageLiteE W
_ZN6google8protobuf8internal18GenericTypeHandlerIN8pblczero16Weights_ResidualEE5MergeERKS4_PS4_ W
_ZN6google8protobuf8internal19arena_delete_objectINS0_7MessageEEEvPv W
_ZN6google8protobuf8internal20RepeatedPtrFieldBase18MergeFromInnerLoopINS0_16RepeatedPtrFieldIN8pblczero16Weights_ResidualEE11TypeHandlerEEEvPPvSA_ii W
_ZN6google8protobuf8internal20RepeatedPtrFieldBase7DestroyINS0_16RepeatedPtrFieldIN8pblczero16Weights_ResidualEE11TypeHandlerEEEvv W
_ZN6google8protobuf8internal21arena_destruct_objectIN8pblczero16Weights_ResidualEEEvPv W
_ZN6google8protobuf8internal21arena_destruct_objectINS1_29InternalMetadataWithArenaBaseINS0_15UnknownFieldSetENS1_25InternalMetadataWithArenaEE9ContainerEEEvPv W
_ZN6google8protobuf8internal29InternalMetadataWithArenaBaseINS0_15UnknownFieldSetENS1_25InternalMetadataWithArenaEE27mutable_unknown_fields_slowEv W
_ZN6google8protobuf8internal29InternalMetadataWithArenaBaseINS0_15UnknownFieldSetENS1_25InternalMetadataWithArenaEED1Ev W
_ZN6google8protobuf8internal29InternalMetadataWithArenaBaseINS0_15UnknownFieldSetENS1_25InternalMetadataWithArenaEED2Ev W
_ZN6lczero10BoolOption15ProcessLongFlagERKNSt7__cxx1112basic_stringIcSt11char_traitsIcESaIcEEES8_PNS_11OptionsDictE T
_ZN6lczero10BoolOption16ProcessShortFlagEcPNS_11OptionsDictE T
_ZN6lczero10BoolOption18ValidateBoolStringERKNSt7__cxx1112basic_stringIcSt11char_traitsIcESaIcEEE T
_ZN6lczero10BoolOption8SetValueERKNSt7__cxx1112basic_stringIcSt11char_traitsIcESaIcEEEPNS_11OptionsDictE T
_ZN6lczero10BoolOptionC1ERKNS_8OptionIdE T
_ZN6lczero10BoolOptionC2ERKNS_8OptionIdE T
_ZN6lczero10BoolOptionD0Ev W
_ZN6lczero10BoolOptionD1Ev W
_ZN6lczero10BoolOptionD2Ev W
_ZN6lczero10ChessBoard10SetFromFenERKNSt7__cxx1112basic_stringIcSt11char_traitsIcESaIcEEEPiS9_ T
_ZN6lczero10ChessBoard12kStartposFenE D
_ZN6lczero10ChessBoard14kStartposBoardE B
_ZN6lczero10ChessBoard5ClearEv T
_ZN6lczero10ChessBoard6MirrorEv T
_ZN6lczero10ChessBoard9ApplyMoveENS_4MoveE T
_ZN6lczero10ConfigFile10arguments_B5cxx11E B
_ZN6lczero10ConfigFile15PopulateOptionsEPNS_13OptionsParserE T
_ZN6lczero10ConfigFile17ProcessConfigFlagERKSt6vectorINSt7__cxx1112basic_stringIcSt11char_traitsIcESaIcEEESaIS7_EE T
_ZN6lczero10ConfigFile4InitEPNS_13OptionsParserE T
_ZN6lczero10ConfigFile9ParseFileERKNSt7__cxx1112basic_stringIcSt11char_traitsIcESaIcEEEPNS_13OptionsParserE T
_ZN6lczero10EngineLoop10CmdIsReadyEv T
_ZN6lczero10EngineLoop11CmdPositionERKNSt7__cxx1112basic_stringIcSt11char_traitsIcESaIcEEERKSt6vectorIS6_SaIS6_EE T
_ZN6lczero10EngineLoop12CmdGetValuesEv T
_ZN6lczero10EngineLoop12CmdPonderHitEv T
_ZN6lczero10EngineLoop12CmdSetOptionERKNSt7__cxx1112basic_stringIcSt11char_traitsIcESaIcEEES8_S8_ T
_ZN6lczero10EngineLoop13CmdUciNewGameEv T
_ZN6lczero10EngineLoop5CmdGoERKNS_8GoParamsE T
_ZN6lczero10EngineLoop6CmdUciEv T
_ZN6lczero10EngineLoop7CmdStopEv T
_ZN6lczero10EngineLoop7RunLoopEv T
_ZN6lczero10EngineLoopC1Ev T
_ZN6lczero10EngineLoopC2Ev T
_ZN6lczero10EngineLoopD0Ev W
_ZN6lczero10EngineLoopD1Ev W
_ZN6lczero10EngineLoopD2Ev W
_ZN6lczero10FormatTimeB5cxx11ENSt6chrono10time_pointINS0_3_V212system_clockENS0_8durationIlSt5ratioILl1ELl1000000000EEEEEE T
_ZN6lczero10LogMessageC1EPKci T
_ZN6lczero10LogMessageC2EPKci T
_ZN6lczero10LogMessageD0Ev T
_ZN6lczero10LogMessageD1Ev T
_ZN6lczero10LogMessageD2Ev T
_ZN6lczero11CommandLine10arguments_B5cxx11E B
_ZN6lczero11CommandLine12RegisterModeERKNSt7__cxx1112basic_stringIcSt11char_traitsIcESaIcEEES8_ T
_ZN6lczero11CommandLine14ConsumeCommandERKNSt7__cxx1112basic_stringIcSt11char_traitsIcESaIcEEE T
_ZN6lczero11CommandLine15BinaryDirectoryB5cxx11Ev T
_ZN6lczero11CommandLine4InitEiPPKc T
_ZN6lczero11CommandLine6modes_B5cxx11E B
_ZN6lczero11CommandLine7binary_B5cxx11E B
_ZN6lczero11FloatOption15ProcessLongFlagERKNSt7__cxx1112basic_stringIcSt11char_traitsIcESaIcEEES8_PNS_11OptionsDictE T
_ZN6lczero11FloatOption25ProcessShortFlagWithValueEcRKNSt7__cxx1112basic_stringIcSt11char_traitsIcESaIcEEEPNS_11OptionsDictE T
_ZN6lczero11FloatOption8SetValueERKNSt7__cxx1112basic_stringIcSt11char_traitsIcESaIcEEEPNS_11OptionsDictE T
_ZN6lczero11FloatOptionC1ERKNS_8OptionIdEff T
_ZN6lczero11FloatOptionC2ERKNS_8OptionIdEff T
_ZN6lczero11FloatOptionD0Ev W
_ZN6lczero11FloatOptionD1Ev W
_ZN6lczero11FloatOptionD2Ev W
_ZN6lczero11GetFileListERKNSt7__cxx1112basic_stringIcSt11char_traitsIcESaIcEEE T
_ZN6lczero11GetFileSizeERKNSt7__cxx1112basic_stringIcSt11char_traitsIcESaIcEEE T
_ZN6lczero11GetFileTimeERKNSt7__cxx1112basic_stringIcSt11char_traitsIcESaIcEEE T
_ZN6lczero11OptionsDict10AddSubdictERKNSt7__cxx1112basic_stringIcSt11char_traitsIcESaIcEEE T
_ZN6lczero11OptionsDict17GetMutableSubdictERKNSt7__cxx1112basic_stringIcSt11char_traitsIcESaIcEEE T
_ZN6lczero11OptionsDict20AddSubdictFromStringERKNSt7__cxx1112basic_stringIcSt11char_traitsIcESaIcEEE T
_ZN6lczero11OptionsDictD1Ev W
_ZN6lczero11OptionsDictD2Ev W
_ZN6lczero12ChoiceOption15ProcessLongFlagERKNSt7__cxx1112basic_stringIcSt11char_traitsIcESaIcEEES8_PNS_11OptionsDictE T
_ZN6lczero12ChoiceOption25ProcessShortFlagWithValueEcRKNSt7__cxx1112basic_stringIcSt11char_traitsIcESaIcEEEPNS_11OptionsDictE T
_ZN6lczero12ChoiceOption8SetValueERKNSt7__cxx1112basic_stringIcSt11char_traitsIcESaIcEEEPNS_11OptionsDictE T
_ZN6lczero12ChoiceOptionC1ERKNS_8OptionIdERKSt6vectorINSt7__cxx1112basic_stringIcSt11char_traitsIcESaIcEEESaISA_EE T
_ZN6lczero12ChoiceOptionC2ERKNS_8OptionIdERKSt6vectorINSt7__cxx1112basic_stringIcSt11char_traitsIcESaIcEEESaISA_EE T
_ZN6lczero12ChoiceOptionD0Ev W
_ZN6lczero12ChoiceOptionD1Ev W
_ZN6lczero12ChoiceOptionD2Ev W
_ZN6lczero12LayerAdapter8Iterator12ExtractValueEPKtPKS0_ T
_ZN6lczero12LayerAdapterC1ERKN8pblczero13Weights_LayerE T
_ZN6lczero12LayerAdapterC2ERKN8pblczero13Weights_LayerE T
_ZN6lczero12ParseIntListERKNSt7__cxx1112basic_stringIcSt11char_traitsIcESaIcEEE T
_ZN6lczero12SearchParams10kMultiPvIdE B
_ZN6lczero12SearchParams11kFpuValueIdE B
_ZN6lczero12SearchParams12kCpuctBaseIdE B
_ZN6lczero12SearchParams12kScoreTypeIdE B
_ZN6lczero12SearchParams14kCpuctFactorIdE B
_ZN6lczero12SearchParams14kFpuStrategyIdE B
_ZN6lczero12SearchParams14kHistoryFillIdE B
_ZN6lczero12SearchParams14kTemperatureIdE B
_ZN6lczero12SearchParams15kLogLiveStatsIdE B
_ZN6lczero12SearchParams15kVerboseStatsIdE B
_ZN6lczero12SearchParams16kMiniBatchSizeIdE B
_ZN6lczero12SearchParams17kFpuValueAtRootIdE B
_ZN6lczero12SearchParams17kOutOfOrderEvalIdE B
_ZN6lczero12SearchParams17kSyzygyFastPlayIdE B
_ZN6lczero12SearchParams17kTempDecayMovesIdE B
_ZN6lczero12SearchParams19kMaxPrefetchBatchIdE B
_ZN6lczero12SearchParams20kFpuStrategyAtRootIdE B
_ZN6lczero12SearchParams20kPolicySoftmaxTempIdE B
_ZN6lczero12SearchParams21kCacheHistoryLengthIdE B
_ZN6lczero12SearchParams21kMaxCollisionEventsIdE B
_ZN6lczero12SearchParams21kMaxCollisionVisitsIdE B
_ZN6lczero12SearchParams21kSmartPruningFactorIdE B
_ZN6lczero12SearchParams21kTemperatureEndgameIdE B
_ZN6lczero12SearchParams22kMinimumKLDGainPerNodeE B
_ZN6lczero12SearchParams23kKLDGainAverageIntervalE B
_ZN6lczero12SearchParams24kTemperatureCutoffMoveIdE B
_ZN6lczero12SearchParams25kTemperatureVisitOffsetIdE B
_ZN6lczero12SearchParams26kTemperatureWinpctCutoffIdE B
_ZN6lczero12SearchParams8kCpuctIdE B
_ZN6lczero12SearchParams8kNoiseIdE B
_ZN6lczero12SearchParams8PopulateEPNS_13OptionsParserE T
_ZN6lczero12SearchParamsC1ERKNS_11OptionsDictE T
_ZN6lczero12SearchParamsC2ERKNS_11OptionsDictE T
_ZN6lczero12SearchWorker10ExtendNodeEPNS_4NodeE T
_ZN6lczero12SearchWorker14DoBackupUpdateEv T
_ZN6lczero12SearchWorker14UpdateCountersEv T
_ZN6lczero12SearchWorker15GatherMinibatchEv T
_ZN6lczero12SearchWorker16PickNodeToExtendEi T
_ZN6lczero12SearchWorker16RunNNComputationEv T
_ZN6lczero12SearchWorker17PrefetchIntoCacheEPNS_4NodeEi T
_ZN6lczero12SearchWorker19ExecuteOneIterationEv T
_ZN6lczero12SearchWorker19InitializeIterationESt10unique_ptrINS_18NetworkComputationESt14default_deleteIS2_EE T
_ZN6lczero12SearchWorker20AddNodeToComputationEPNS_4NodeEb T
_ZN6lczero12SearchWorker21FetchMinibatchResultsEv T
_ZN6lczero12SearchWorker21FetchSingleNodeResultEPNS0_13NodeToProcessEi T
_ZN6lczero12SearchWorker22MaybePrefetchIntoCacheEv T
_ZN6lczero12SearchWorker24DoBackupUpdateSingleNodeERKNS0_13NodeToProcessE T
_ZN6lczero12SearchWorkerD1Ev W
_ZN6lczero12SearchWorkerD2Ev W
_ZN6lczero12SelfPlayGame17PopulateUciParamsEPNS_13OptionsParserE T
_ZN6lczero12SelfPlayGame4PlayEiibb T
_ZN6lczero12SelfPlayGame5AbortEv T
_ZN6lczero12SelfPlayGameC1ENS_13PlayerOptionsES1_b T
_ZN6lczero12SelfPlayGameC2ENS_13PlayerOptionsES1_b T
_ZN6lczero12SelfPlayLoop12CmdSetOptionERKNSt7__cxx1112basic_stringIcSt11char_traitsIcESaIcEEES8_S8_ T
_ZN6lczero12SelfPlayLoop12SendGameInfoERKNS_8GameInfoE T
_ZN6lczero12SelfPlayLoop14SendTournamentERKNS_14TournamentInfoE T
_ZN6lczero12SelfPlayLoop6CmdUciEv T
_ZN6lczero12SelfPlayLoop7RunLoopEv T
_ZN6lczero12SelfPlayLoop8CmdStartEv T
_ZN6lczero12SelfPlayLoopC1Ev T
_ZN6lczero12SelfPlayLoopC2Ev T
_ZN6lczero12SelfPlayLoopD0Ev T
_ZN6lczero12SelfPlayLoopD1Ev T
_ZN6lczero12SelfPlayLoopD2Ev T
_ZN6lczero12StringOption15ProcessLongFlagERKNSt7__cxx1112basic_stringIcSt11char_traitsIcESaIcEEES8_PNS_11OptionsDictE T
_ZN6lczero12StringOption25ProcessShortFlagWithValueEcRKNSt7__cxx1112basic_stringIcSt11char_traitsIcESaIcEEEPNS_11OptionsDictE T
_ZN6lczero12StringOption8SetValueERKNSt7__cxx1112basic_stringIcSt11char_traitsIcESaIcEEEPNS_11OptionsDictE T
_ZN6lczero12StringOptionC1ERKNS_8OptionIdE T
_ZN6lczero12StringOptionC2ERKNS_8OptionIdE T
_ZN6lczero12StringOptionD0Ev W
_ZN6lczero12StringOptionD1Ev W
_ZN6lczero12StringOptionD2Ev W
_ZN6lczero12ThinkingInfoC1ERKS0_ W
_ZN6lczero12ThinkingInfoC2ERKS0_ W
_ZN6lczero12ThinkingInfoD1Ev W
_ZN6lczero12ThinkingInfoD2Ev W
_ZN6lczero13Edge_IteratorILb0EE9ActualizeEv W
_ZN6lczero13kAutoDiscoverE D
_ZN6lczero13LegacyWeights6SEunitC1ERKN8pblczero14Weights_SEunitE T
_ZN6lczero13LegacyWeights6SEunitC2ERKN8pblczero14Weights_SEunitE T
_ZN6lczero13LegacyWeights8ResidualC1ERKN8pblczero16Weights_ResidualE T
_ZN6lczero13LegacyWeights8ResidualC2ERKN8pblczero16Weights_ResidualE T
_ZN6lczero13LegacyWeights8ResidualD1Ev W
_ZN6lczero13LegacyWeights8ResidualD2Ev W
_ZN6lczero13LegacyWeights9ConvBlockC1ERKN8pblczero17Weights_ConvBlockE T
_ZN6lczero13LegacyWeights9ConvBlockC2ERKN8pblczero17Weights_ConvBlockE T
_ZN6lczero13LegacyWeights9ConvBlockD1Ev W
_ZN6lczero13LegacyWeights9ConvBlockD2Ev W
_ZN6lczero13LegacyWeightsC1ERKN8pblczero7WeightsE T
_ZN6lczero13LegacyWeightsC2ERKN8pblczero7WeightsE T
_ZN6lczero13LegacyWeightsD1Ev W
_ZN6lczero13LegacyWeightsD2Ev W
_ZN6lczero13OptionsParser10AddContextERKNSt7__cxx1112basic_stringIcSt11char_traitsIcESaIcEEE T
_ZN6lczero13OptionsParser10HideOptionERKNS_8OptionIdE T
_ZN6lczero13OptionsParser12ProcessFlagsERKSt6vectorINSt7__cxx1112basic_stringIcSt11char_traitsIcESaIcEEESaIS7_EE T
_ZN6lczero13OptionsParser12SetUciOptionERKNSt7__cxx1112basic_stringIcSt11char_traitsIcESaIcEEES8_S8_ T
_ZN6lczero13OptionsParser14GetOptionsDictERKNSt7__cxx1112basic_stringIcSt11char_traitsIcESaIcEEE T
_ZN6lczero13OptionsParser15ProcessAllFlagsEv T
_ZN6lczero13OptionsParser17GetMutableOptionsERKNSt7__cxx1112basic_stringIcSt11char_traitsIcESaIcEEE T
_ZN6lczero13OptionsParser3AddINS_11FloatOptionEIRKNS_8OptionIdEffEEERNT_9ValueTypeEDpOT0_ W
_ZN6lczero13OptionsParser3AddINS_11FloatOptionEJRKNS_8OptionIdEffEEERNT_9ValueTypeEDpOT0_ W
_ZN6lczero13OptionsParser3AddINS_9IntOptionEIRKNS_8OptionIdEiiEEERNT_9ValueTypeEDpOT0_ W
_ZN6lczero13OptionsParser3AddINS_9IntOptionEJRKNS_8OptionIdEiiEEERNT_9ValueTypeEDpOT0_ W
_ZN6lczero13OptionsParser6Option15ProcessLongFlagERKNSt7__cxx1112basic_stringIcSt11char_traitsIcESaIcEEES9_PNS_11OptionsDictE W
_ZN6lczero13OptionsParser6Option16ProcessShortFlagEcPNS_11OptionsDictE W
_ZN6lczero13OptionsParser6Option25ProcessShortFlagWithValueEcRKNSt7__cxx1112basic_stringIcSt11char_traitsIcESaIcEEEPNS_11OptionsDictE W
_ZN6lczero13OptionsParser6OptionC1ERKNS_8OptionIdE T
_ZN6lczero13OptionsParser6OptionC2ERKNS_8OptionIdE T
_ZN6lczero13OptionsParserC1Ev T
_ZN6lczero13OptionsParserC2Ev T
_ZN6lczero13PlayerOptionsD1Ev W
_ZN6lczero13PlayerOptionsD2Ev W
_ZN6lczero14NetworkFactory10kBackendIdE B
_ZN6lczero14NetworkFactory10kWeightsIdE B
_ZN6lczero14NetworkFactory11LoadNetworkERKNS_11OptionsDictE T
_ZN6lczero14NetworkFactory15PopulateOptionsEPNS_13OptionsParserE T
_ZN6lczero14NetworkFactory15RegisterNetworkERKNSt7__cxx1112basic_stringIcSt11char_traitsIcESaIcEEESt8functionIFSt10unique_ptrINS_7NetworkESt14default_deleteISB_EERKN8pblczero3NetERKNS_11OptionsDictEEEi T
_ZN6lczero14NetworkFactory17kBackendOptionsIdE B
_ZN6lczero14NetworkFactory20BackendConfigurationC1ERKNS_11OptionsDictE T
_ZN6lczero14NetworkFactory20BackendConfigurationC2ERKNS_11OptionsDictE T
_ZN6lczero14NetworkFactory20BackendConfigurationD1Ev W
_ZN6lczero14NetworkFactory20BackendConfigurationD2Ev W
_ZN6lczero14NetworkFactory3GetEv T
_ZN6lczero14NetworkFactory6CreateERKNSt7__cxx1112basic_stringIcSt11char_traitsIcESaIcEEERKN8pblczero3NetERKNS_11OptionsDictE T
_ZN6lczero14NetworkFactory7FactoryD1Ev W
_ZN6lczero14NetworkFactory7FactoryD2Ev W
_ZN6lczero14NetworkFactory8RegisterC1ERKNSt7__cxx1112basic_stringIcSt11char_traitsIcESaIcEEESt8functionIFSt10unique_ptrINS_7NetworkESt14default_deleteISC_EERKN8pblczero3NetERKNS_11OptionsDictEEEi T
_ZN6lczero14NetworkFactory8RegisterC2ERKNSt7__cxx1112basic_stringIcSt11char_traitsIcESaIcEEESt8functionIFSt10unique_ptrINS_7NetworkESt14default_deleteISC_EERKN8pblczero3NetERKNS_11OptionsDictEEEi T
_ZN6lczero14NetworkFactoryD1Ev W
_ZN6lczero14NetworkFactoryD2Ev W
_ZN6lczero15CreateDirectoryERKNSt7__cxx1112basic_stringIcSt11char_traitsIcESaIcEEE T
_ZN6lczero15PositionHistory5ResetERKNS_10ChessBoardEii T
_ZN6lczero15PositionHistory6AppendENS_4MoveE T
_ZN6lczero15SyzygyTablebase10root_probeERKNS_8PositionEbPSt6vectorINS_4MoveESaIS5_EE T
_ZN6lczero15SyzygyTablebase14root_probe_wdlERKNS_8PositionEPSt6vectorINS_4MoveESaIS5_EE T
_ZN6lczero15SyzygyTablebase4initERKNSt7__cxx1112basic_stringIcSt11char_traitsIcESaIcEEE T
_ZN6lczero15SyzygyTablebase6searchILb0EEENS_8WDLScoreERKNS_8PositionEPNS_10ProbeStateE W
_ZN6lczero15SyzygyTablebase6searchILb1EEENS_8WDLScoreERKNS_8PositionEPNS_10ProbeStateE W
_ZN6lczero15SyzygyTablebase9probe_dtzERKNS_8PositionEPNS_10ProbeStateE T
_ZN6lczero15SyzygyTablebase9probe_wdlERKNS_8PositionEPNS_10ProbeStateE T
_ZN6lczero15SyzygyTablebaseC1Ev T
_ZN6lczero15SyzygyTablebaseC2Ev T
_ZN6lczero15SyzygyTablebaseD0Ev T
_ZN6lczero15SyzygyTablebaseD1Ev T
_ZN6lczero15SyzygyTablebaseD2Ev T
_ZN6lczero15TransposeTensorERKSt6vectorIiSaIiEES2_S0_IfSaIfEEPf T
_ZN6lczero16BiasResidualReluEmmPfPKfS2_b T
_ZN6lczero16EngineController11EnsureReadyEv T
_ZN6lczero16EngineController11SetPositionERKNSt7__cxx1112basic_stringIcSt11char_traitsIcESaIcEEERKSt6vectorIS6_SaIS6_EE T
_ZN6lczero16EngineController13SetupPositionERKNSt7__cxx1112basic_stringIcSt11char_traitsIcESaIcEEERKSt6vectorIS6_SaIS6_EE T
_ZN6lczero16EngineController15PopulateOptionsEPNS_13OptionsParserE T
_ZN6lczero16EngineController20PopulateSearchLimitsEibRKNS_8GoParamsENSt6chrono10time_pointINS4_3_V212steady_clockENS4_8durationIlSt5ratioILl1ELl1000000000EEEEEE T
_ZN6lczero16EngineController20UpdateFromUciOptionsEv T
_ZN6lczero16EngineController2GoERKNS_8GoParamsE T
_ZN6lczero16EngineController4StopEv T
_ZN6lczero16EngineController7NewGameEv T
_ZN6lczero16EngineController9GetValuesEv T
_ZN6lczero16EngineController9PonderHitEv T
_ZN6lczero16EngineControllerC1ESt8functionIFvRKNS_12BestMoveInfoEEES1_IFvRKSt6vectorINS_12ThinkingInfoESaIS8_EEEERKNS_11OptionsDictE T
_ZN6lczero16EngineControllerC2ESt8functionIFvRKNS_12BestMoveInfoEEES1_IFvRKSt6vectorINS_12ThinkingInfoESaIS8_EEEERKNS_11OptionsDictE T
_ZN6lczero16EngineControllerD1Ev W
_ZN6lczero16EngineControllerD2Ev W
_ZN6lczero16StderrLogMessageC1EPKci T
_ZN6lczero16StderrLogMessageC2EPKci T
_ZN6lczero16StderrLogMessageD0Ev T
_ZN6lczero16StderrLogMessageD1Ev T
_ZN6lczero16StderrLogMessageD2Ev T
_ZN6lczero17MakeRandomNetworkERKN8pblczero3NetERKNS_11OptionsDictE T
_ZN6lczero17SoftmaxActivationEmPKfPf T
_ZN6lczero18CachingComputation11PopCacheHitEv T
_ZN6lczero18CachingComputation14AddInputByHashEm T
_ZN6lczero18CachingComputation15ComputeBlockingEv T
_ZN6lczero18CachingComputation15PopLastInputHitEv T
_ZN6lczero18CachingComputation8AddInputEmOSt6vectorINS_10InputPlaneESaIS2_EEOS1_ItSaItEE T
_ZN6lczero18CachingComputationC1ESt10unique_ptrINS_18NetworkComputationESt14default_deleteIS2_EEPNS_8LruCacheImNS_15CachedNNRequestEEE T
_ZN6lczero18CachingComputationC2ESt10unique_ptrINS_18NetworkComputationESt14default_deleteIS2_EEPNS_8LruCacheImNS_15CachedNNRequestEEE T
_ZN6lczero18SelfPlayTournament10StartAsyncEv T
_ZN6lczero18SelfPlayTournament11PlayOneGameEi T
_ZN6lczero18SelfPlayTournament11RunBlockingEv T
_ZN6lczero18SelfPlayTournament15PopulateOptionsEPNS_13OptionsParserE T
_ZN6lczero18SelfPlayTournament4WaitEv T
_ZN6lczero18SelfPlayTournament5AbortEv T
_ZN6lczero18SelfPlayTournament6WorkerEv T
_ZN6lczero18SelfPlayTournamentC1ERKNS_11OptionsDictESt8functionIFvRKNS_12BestMoveInfoEEES4_IFvRKSt6vectorINS_12ThinkingInfoESaISB_EEEES4_IFvRKNS_8GameInfoEEES4_IFvRKNS_14TournamentInfoEEE T
_ZN6lczero18SelfPlayTournamentC2ERKNS_11OptionsDictESt8functionIFvRKNS_12BestMoveInfoEEES4_IFvRKSt6vectorINS_12ThinkingInfoESaISB_EEEES4_IFvRKNS_8GameInfoEEES4_IFvRKNS_14TournamentInfoEEE T
_ZN6lczero18SelfPlayTournamentD1Ev T
_ZN6lczero18SelfPlayTournamentD2Ev T
_ZN6lczero18TrainingDataWriter10WriteChunkERKNS_14V4TrainingDataE T
_ZN6lczero18TrainingDataWriter8FinalizeEv T
_ZN6lczero18TrainingDataWriterC1Ei T
_ZN6lczero18TrainingDataWriterC2Ei T
_ZN6lczero19DiscoverWeightsFileB5cxx11Ev T
_ZN6lczero19EncodePositionForNNERKNS_15PositionHistoryEiNS_16FillEmptyHistoryE T
_ZN6lczero19LoadWeightsFromFileERKNSt7__cxx1112basic_stringIcSt11char_traitsIcESaIcEEE T
_ZN6lczero19SyzygyTablebaseImpl11name_for_tbB5cxx11EPKcS2_ W
_ZN6lczero19SyzygyTablebaseImpl11probe_tableERKNS_10ChessBoardEiPii W
_ZN6lczero19SyzygyTablebaseImplC1ERKNSt7__cxx1112basic_stringIcSt11char_traitsIcESaIcEEE W
_ZN6lczero19SyzygyTablebaseImplC2ERKNSt7__cxx1112basic_stringIcSt11char_traitsIcESaIcEEE W
_ZN6lczero20StrSplitAtWhitespaceERKNSt7__cxx1112basic_stringIcSt11char_traitsIcESaIcEEE T
_ZN6lczero22StringsEqualIgnoreCaseERKNSt7__cxx1112basic_stringIcSt11char_traitsIcESaIcEEES7_ T
_ZN6lczero22WinogradFilterZeropadUERKSt6vectorIfSaIfEEmmmm T
_ZN6lczero24InitializeMagicBitboardsEv T
_ZN6lczero24SteadyClockToSystemClockENSt6chrono10time_pointINS0_3_V212steady_clockENS0_8durationIlSt5ratioILl1ELl1000000000EEEEEE T
_ZN6lczero24WinogradFilterTransformFERKSt6vectorIfSaIfEEmm T
_ZN6lczero27SingleThreadBatchingNetwork14NewComputationEv T
_ZN6lczero27SingleThreadBatchingNetwork5ResetEv T
_ZN6lczero27SingleThreadBatchingNetworkC1ESt10unique_ptrINS_7NetworkESt14default_deleteIS2_EE T
_ZN6lczero27SingleThreadBatchingNetworkC2ESt10unique_ptrINS_7NetworkESt14default_deleteIS2_EE T
_ZN6lczero27SingleThreadBatchingNetworkD0Ev W
_ZN6lczero27SingleThreadBatchingNetworkD1Ev W
_ZN6lczero27SingleThreadBatchingNetworkD2Ev W
_ZN6lczero38SingleThreadBatchingNetworkComputation15ComputeBlockingEv T
_ZN6lczero38SingleThreadBatchingNetworkComputation8AddInputEOSt6vectorINS_10InputPlaneESaIS2_EE T
_ZN6lczero38SingleThreadBatchingNetworkComputationC1EPNS_27SingleThreadBatchingNetworkE T
_ZN6lczero38SingleThreadBatchingNetworkComputationC2EPNS_27SingleThreadBatchingNetworkE T
_ZN6lczero38SingleThreadBatchingNetworkComputationD0Ev W
_ZN6lczero38SingleThreadBatchingNetworkComputationD1Ev W
_ZN6lczero38SingleThreadBatchingNetworkComputationD2Ev W
_ZN6lczero4Edge4SetPEf T
_ZN6lczero4MoveC1EPKcb W
_ZN6lczero4MoveC1ERKNSt7__cxx1112basic_stringIcSt11char_traitsIcESaIcEEEb T
_ZN6lczero4MoveC2EPKcb W
_ZN6lczero4MoveC2ERKNSt7__cxx1112basic_stringIcSt11char_traitsIcESaIcEEEb T
_ZN6lczero4Node11CreateEdgesERKSt6vectorINS_4MoveESaIS2_EE T
_ZN6lczero4Node12MakeTerminalENS_10GameResultE T
_ZN6lczero4Node15ReleaseChildrenEv T
_ZN6lczero4Node15UpdateBestChildERKNS_13Edge_IteratorILb0EEEi T
_ZN6lczero4Node17CancelScoreUpdateEi T
_ZN6lczero4Node19FinalizeScoreUpdateEffi T
_ZN6lczero4Node19TryStartScoreUpdateEv T
_ZN6lczero4Node21CreateSingleChildNodeENS_4MoveE T
_ZN6lczero4Node24ReleaseChildrenExceptOneEPS0_ T
_ZN6lczero4Node5EdgesEv T
_ZN6lczero4TrimENSt7__cxx1112basic_stringIcSt11char_traitsIcESaIcEEE T
_ZN6lczero6Random3GetEv T
_ZN6lczero6Random6GetIntEii T
_ZN6lczero6Random7GetBoolEv T
_ZN6lczero6Random8GetFloatEf T
_ZN6lczero6Random8GetGammaEdd T
_ZN6lczero6Random9GetDoubleEd T
_ZN6lczero6Random9GetStringB5cxx11Ei T
_ZN6lczero6RandomC1Ev T
_ZN6lczero6RandomC2Ev T
_ZN6lczero6Search11GetBestMoveEv T
_ZN6lczero6Search11RunBlockingEm T
_ZN6lczero6Search11SendUciInfoEv T
_ZN6lczero6Search12StartThreadsEm T
_ZN6lczero6Search13UpdateKLDGainEv T
_ZN6lczero6Search14WatchdogThreadEv T
_ZN6lczero6Search15MaybeOutputInfoEv T
_ZN6lczero6Search16FireStopInternalEv T
_ZN6lczero6Search16MaybeTriggerStopEv T
_ZN6lczero6Search19EnsureBestMoveKnownEv T
_ZN6lczero6Search20UpdateRemainingMovesEv T
_ZN6lczero6Search4StopEv T
_ZN6lczero6Search4WaitEv T
_ZN6lczero6Search5AbortEv T
_ZN6lczero6SearchC1ERKNS_8NodeTreeEPNS_7NetworkESt8functionIFvRKNS_12BestMoveInfoEEES6_IFvRKSt6vectorINS_12ThinkingInfoESaISD_EEEERKNS_12SearchLimitsERKNS_11OptionsDictEPNS_8LruCacheImNS_15CachedNNRequestEEEPNS_15SyzygyTablebaseE T
_ZN6lczero6SearchC2ERKNS_8NodeTreeEPNS_7NetworkESt8functionIFvRKNS_12BestMoveInfoEEES6_IFvRKSt6vectorINS_12ThinkingInfoESaISD_EEEERKNS_12SearchLimitsERKNS_11OptionsDictEPNS_8LruCacheImNS_15CachedNNRequestEEEPNS_15SyzygyTablebaseE T
_ZN6lczero6SearchD1Ev T
_ZN6lczero6SearchD2Ev T
_ZN6lczero7Logging11SetFilenameERKNSt7__cxx1112basic_stringIcSt11char_traitsIcESaIcEEE T
_ZN6lczero7Logging12WriteLineRawERKNSt7__cxx1112basic_stringIcSt11char_traitsIcESaIcEEE T
_ZN6lczero7Logging3GetEv T
_ZN6lczero7LoggingD1Ev W
_ZN6lczero7LoggingD2Ev W
_ZN6lczero7StrJoinERKSt6vectorINSt7__cxx1112basic_stringIcSt11char_traitsIcESaIcEEESaIS6_EERKS6_ T
_ZN6lczero7UciLoop10CmdIsReadyEv W
_ZN6lczero7UciLoop11CmdPositionERKNSt7__cxx1112basic_stringIcSt11char_traitsIcESaIcEEERKSt6vectorIS6_SaIS6_EE W
_ZN6lczero7UciLoop12CmdGetValuesEv W
_ZN6lczero7UciLoop12CmdPonderHitEv W
_ZN6lczero7UciLoop12CmdSetOptionERKNSt7__cxx1112basic_stringIcSt11char_traitsIcESaIcEEES8_S8_ W
_ZN6lczero7UciLoop12SendBestMoveERKNS_12BestMoveInfoE T
_ZN6lczero7UciLoop12SendResponseERKNSt7__cxx1112basic_stringIcSt11char_traitsIcESaIcEEE T
_ZN6lczero7UciLoop13CmdUciNewGameEv W
_ZN6lczero7UciLoop13SendResponsesERKSt6vectorINSt7__cxx1112basic_stringIcSt11char_traitsIcESaIcEEESaIS7_EE T
_ZN6lczero7UciLoop15DispatchCommandERKNSt7__cxx1112basic_stringIcSt11char_traitsIcESaIcEEERKSt13unordered_mapIS6_S6_St4hashIS6_ESt8equal_toIS6_ESaISt4pairIS7_S6_EEE T
_ZN6lczero7UciLoop5CmdGoERKNS_8GoParamsE W
_ZN6lczero7UciLoop6CmdUciEv W
_ZN6lczero7UciLoop6SendIdEv T
_ZN6lczero7UciLoop7CmdStopEv W
_ZN6lczero7UciLoop7RunLoopEv T
_ZN6lczero7UciLoop8CmdStartEv W
_ZN6lczero7UciLoop8SendInfoERKSt6vectorINS_12ThinkingInfoESaIS2_EE T
_ZN6lczero7UciLoopD0Ev W
_ZN6lczero7UciLoopD1Ev W
_ZN6lczero7UciLoopD2Ev W
_ZN6lczero8EdgeListC1ESt6vectorINS_4MoveESaIS2_EE T
_ZN6lczero8EdgeListC2ESt6vectorINS_4MoveESaIS2_EE T
_ZN6lczero8FlowTextERKNSt7__cxx1112basic_stringIcSt11char_traitsIcESaIcEEEm T
_ZN6lczero8LeftTrimENSt7__cxx1112basic_stringIcSt11char_traitsIcESaIcEEE T
_ZN6lczero8LruCacheImNS_15CachedNNRequestEE5UnpinEmPS1_ W
_ZN6lczero8LruCacheImNS_15CachedNNRequestEED1Ev W
_ZN6lczero8LruCacheImNS_15CachedNNRequestEED2Ev W
_ZN6lczero8NodeTree14DeallocateTreeEv T
_ZN6lczero8NodeTree14TrimTreeAtHeadEv T
_ZN6lczero8NodeTree15ResetToPositionERKNSt7__cxx1112basic_stringIcSt11char_traitsIcESaIcEEERKSt6vectorINS_4MoveESaISA_EE T
_ZN6lczero8NodeTree8MakeMoveENS_4MoveE T
_ZN6lczero8NodeTreeD1Ev W
_ZN6lczero8NodeTreeD2Ev W
_ZN6lczero8PositionC1ERKNS_10ChessBoardEii T
_ZN6lczero8PositionC1ERKS0_NS_4MoveE T
_ZN6lczero8PositionC2ERKNS_10ChessBoardEii T
_ZN6lczero8PositionC2ERKS0_NS_4MoveE T
_ZN6lczero8StrSplitERKNSt7__cxx1112basic_stringIcSt11char_traitsIcESaIcEEES7_ T
_ZN6lczero9Benchmark10OnBestMoveERKNS_12BestMoveInfoE T
_ZN6lczero9Benchmark3RunEv T
_ZN6lczero9Benchmark6OnInfoERKSt6vectorINS_12ThinkingInfoESaIS2_EE T
_ZN6lczero9ExceptionC1ERKNSt7__cxx1112basic_stringIcSt11char_traitsIcESaIcEEE W
_ZN6lczero9ExceptionC2ERKNSt7__cxx1112basic_stringIcSt11char_traitsIcESaIcEEE W
_ZN6lczero9ExceptionD0Ev W
_ZN6lczero9ExceptionD1Ev W
_ZN6lczero9ExceptionD2Ev W
_ZN6lczero9Histogram3AddEd T
_ZN6lczero9Histogram5ClearEv T
_ZN6lczero9HistogramC1Eiii T
_ZN6lczero9HistogramC1Ev T
_ZN6lczero9HistogramC2Eiii T
_ZN6lczero9HistogramC2Ev T
_ZN6lczero9IntOption15ProcessLongFlagERKNSt7__cxx1112basic_stringIcSt11char_traitsIcESaIcEEES8_PNS_11OptionsDictE T
_ZN6lczero9IntOption25ProcessShortFlagWithValueEcRKNSt7__cxx1112basic_stringIcSt11char_traitsIcESaIcEEEPNS_11OptionsDictE T
_ZN6lczero9IntOption8SetValueERKNSt7__cxx1112basic_stringIcSt11char_traitsIcESaIcEEEPNS_11OptionsDictE T
_ZN6lczero9IntOptionC1ERKNS_8OptionIdEii T
_ZN6lczero9IntOptionC2ERKNS_8OptionIdEii T
_ZN6lczero9IntOptionD0Ev W
_ZN6lczero9IntOptionD1Ev W
_ZN6lczero9IntOptionD2Ev W
_ZN6lczero9RightTrimENSt7__cxx1112basic_stringIcSt11char_traitsIcESaIcEEE T
_ZN6OpenCL10initializeEiRK12OpenCLParams T
_ZN6OpenCL14process_tunersENSt7__cxx1112basic_stringIcSt11char_traitsIcESaIcEEE T
_ZN6OpenCL15get_device_nameB5cxx11Ev T
_ZN6OpenCL16get_sgemm_tunersEv T
_ZN8pblczero13EngineVersion10descriptorEv T
_ZN8pblczero13EngineVersion10SharedCtorEv T
_ZN8pblczero13EngineVersion10SharedDtorEv T
_ZN8pblczero13EngineVersion12InternalSwapEPS0_ T
_ZN8pblczero13EngineVersion16default_instanceEv T
_ZN8pblczero13EngineVersion17kMajorFieldNumberE R
_ZN8pblczero13EngineVersion17kMinorFieldNumberE R
_ZN8pblczero13EngineVersion17kPatchFieldNumberE R
_ZN8pblczero13EngineVersion21InitAsDefaultInstanceEv T
_ZN8pblczero13EngineVersion27MergePartialFromCodedStreamEPN6google8protobuf2io16CodedInputStreamE T
_ZN8pblczero13EngineVersion4SwapEPS0_ T
_ZN8pblczero13EngineVersion5ClearEv T
_ZN8pblczero13EngineVersion8CopyFromERKN6google8protobuf7MessageE T
_ZN8pblczero13EngineVersion8CopyFromERKS0_ T
_ZN8pblczero13EngineVersion9MergeFromERKN6google8protobuf7MessageE T
_ZN8pblczero13EngineVersion9MergeFromERKS0_ T
_ZN8pblczero13EngineVersionC1ERKS0_ T
_ZN8pblczero13EngineVersionC1Ev T
_ZN8pblczero13EngineVersionC2ERKS0_ T
_ZN8pblczero13EngineVersionC2Ev T
_ZN8pblczero13EngineVersionD0Ev T
_ZN8pblczero13EngineVersionD1Ev T
_ZN8pblczero13EngineVersionD2Ev T
_ZN8pblczero13NetworkFormat10descriptorEv T
_ZN8pblczero13NetworkFormat10NETWORK_SEE R
_ZN8pblczero13NetworkFormat10OUTPUT_WDLE R
_ZN8pblczero13NetworkFormat10SharedCtorEv T
_ZN8pblczero13NetworkFormat10SharedDtorEv T
_ZN8pblczero13NetworkFormat12InternalSwapEPS0_ T
_ZN8pblczero13NetworkFormat13INPUT_UNKNOWNE R
_ZN8pblczero13NetworkFormat13VALUE_UNKNOWNE R
_ZN8pblczero13NetworkFormat14OUTPUT_UNKNOWNE R
_ZN8pblczero13NetworkFormat14POLICY_UNKNOWNE R
_ZN8pblczero13NetworkFormat15InputFormat_MAXE R
_ZN8pblczero13NetworkFormat15InputFormat_MINE R
_ZN8pblczero13NetworkFormat15NETWORK_UNKNOWNE R
_ZN8pblczero13NetworkFormat15VALUE_CLASSICALE R
_ZN8pblczero13NetworkFormat15ValueFormat_MAXE R
_ZN8pblczero13NetworkFormat15ValueFormat_MINE R
_ZN8pblczero13NetworkFormat16default_instanceEv T
_ZN8pblczero13NetworkFormat16OUTPUT_CLASSICALE R
_ZN8pblczero13NetworkFormat16OutputFormat_MAXE R
_ZN8pblczero13NetworkFormat16OutputFormat_MINE R
_ZN8pblczero13NetworkFormat16POLICY_CLASSICALE R
_ZN8pblczero13NetworkFormat16PolicyFormat_MAXE R
_ZN8pblczero13NetworkFormat16PolicyFormat_MINE R
_ZN8pblczero13NetworkFormat17kInputFieldNumberE R
_ZN8pblczero13NetworkFormat17kValueFieldNumberE R
_ZN8pblczero13NetworkFormat17NETWORK_CLASSICALE R
_ZN8pblczero13NetworkFormat18kOutputFieldNumberE R
_ZN8pblczero13NetworkFormat18kPolicyFieldNumberE R
_ZN8pblczero13NetworkFormat18POLICY_CONVOLUTIONE R
_ZN8pblczero13NetworkFormat19kNetworkFieldNumberE R
_ZN8pblczero13NetworkFormat20NetworkStructure_MAXE R
_ZN8pblczero13NetworkFormat20NetworkStructure_MINE R
_ZN8pblczero13NetworkFormat21InitAsDefaultInstanceEv T
_ZN8pblczero13NetworkFormat21InputFormat_ARRAYSIZEE R
_ZN8pblczero13NetworkFormat21ValueFormat_ARRAYSIZEE R
_ZN8pblczero13NetworkFormat22OutputFormat_ARRAYSIZEE R
_ZN8pblczero13NetworkFormat22PolicyFormat_ARRAYSIZEE R
_ZN8pblczero13NetworkFormat25INPUT_CLASSICAL_112_PLANEE R
_ZN8pblczero13NetworkFormat26NETWORK_SE_WITH_HEADFORMATE R
_ZN8pblczero13NetworkFormat26NetworkStructure_ARRAYSIZEE R
_ZN8pblczero13NetworkFormat27MergePartialFromCodedStreamEPN6google8protobuf2io16CodedInputStreamE T
_ZN8pblczero13NetworkFormat33NETWORK_CLASSICAL_WITH_HEADFORMATE R
_ZN8pblczero13NetworkFormat4SwapEPS0_ T
_ZN8pblczero13NetworkFormat5ClearEv T
_ZN8pblczero13NetworkFormat8CopyFromERKN6google8protobuf7MessageE T
_ZN8pblczero13NetworkFormat8CopyFromERKS0_ T
_ZN8pblczero13NetworkFormat9MergeFromERKN6google8protobuf7MessageE T
_ZN8pblczero13NetworkFormat9MergeFromERKS0_ T
_ZN8pblczero13NetworkFormat9VALUE_WDLE R
_ZN8pblczero13NetworkFormatC1ERKS0_ T
_ZN8pblczero13NetworkFormatC1Ev T
_ZN8pblczero13NetworkFormatC2ERKS0_ T
_ZN8pblczero13NetworkFormatC2Ev T
_ZN8pblczero13NetworkFormatD0Ev T
_ZN8pblczero13NetworkFormatD1Ev T
_ZN8pblczero13NetworkFormatD2Ev T
_ZN8pblczero13Weights_Layer10descriptorEv T
_ZN8pblczero13Weights_Layer10SharedCtorEv T
_ZN8pblczero13Weights_Layer10SharedDtorEv T
_ZN8pblczero13Weights_Layer12InternalSwapEPS0_ T
_ZN8pblczero13Weights_Layer16default_instanceEv T
_ZN8pblczero13Weights_Layer18kMaxValFieldNumberE R
_ZN8pblczero13Weights_Layer18kMinValFieldNumberE R
_ZN8pblczero13Weights_Layer18kParamsFieldNumberE R
_ZN8pblczero13Weights_Layer21InitAsDefaultInstanceEv T
_ZN8pblczero13Weights_Layer27MergePartialFromCodedStreamEPN6google8protobuf2io16CodedInputStreamE T
_ZN8pblczero13Weights_Layer4SwapEPS0_ T
_ZN8pblczero13Weights_Layer5ClearEv T
_ZN8pblczero13Weights_Layer8CopyFromERKN6google8protobuf7MessageE T
_ZN8pblczero13Weights_Layer8CopyFromERKS0_ T
_ZN8pblczero13Weights_Layer9MergeFromERKN6google8protobuf7MessageE T
_ZN8pblczero13Weights_Layer9MergeFromERKS0_ T
_ZN8pblczero13Weights_LayerC1ERKS0_ T
_ZN8pblczero13Weights_LayerC1Ev T
_ZN8pblczero13Weights_LayerC2ERKS0_ T
_ZN8pblczero13Weights_LayerC2Ev T
_ZN8pblczero13Weights_LayerD0Ev T
_ZN8pblczero13Weights_LayerD1Ev T
_ZN8pblczero13Weights_LayerD2Ev T
_ZN8pblczero14TrainingParams10descriptorEv T
_ZN8pblczero14TrainingParams10SharedCtorEv T
_ZN8pblczero14TrainingParams10SharedDtorEv T
_ZN8pblczero14TrainingParams12InternalSwapEPS0_ T
_ZN8pblczero14TrainingParams16default_instanceEv T
_ZN8pblczero14TrainingParams19kMseLossFieldNumberE R
_ZN8pblczero14TrainingParams20kAccuracyFieldNumberE R
_ZN8pblczero14TrainingParams21InitAsDefaultInstanceEv T
_ZN8pblczero14TrainingParams21kLc0ParamsFieldNumberE R
_ZN8pblczero14TrainingParams22kPolicyLossFieldNumberE R
_ZN8pblczero14TrainingParams24kLearningRateFieldNumberE R
_ZN8pblczero14TrainingParams25kTrainingStepsFieldNumberE R
_ZN8pblczero14TrainingParams27MergePartialFromCodedStreamEPN6google8protobuf2io16CodedInputStreamE T
_ZN8pblczero14TrainingParams4SwapEPS0_ T
_ZN8pblczero14TrainingParams5ClearEv T
_ZN8pblczero14TrainingParams8CopyFromERKN6google8protobuf7MessageE T
_ZN8pblczero14TrainingParams8CopyFromERKS0_ T
_ZN8pblczero14TrainingParams9MergeFromERKN6google8protobuf7MessageE T
_ZN8pblczero14TrainingParams9MergeFromERKS0_ T
_ZN8pblczero14TrainingParamsC1ERKS0_ T
_ZN8pblczero14TrainingParamsC1Ev T
_ZN8pblczero14TrainingParamsC2ERKS0_ T
_ZN8pblczero14TrainingParamsC2Ev T
_ZN8pblczero14TrainingParamsD0Ev T
_ZN8pblczero14TrainingParamsD1Ev T
_ZN8pblczero14TrainingParamsD2Ev T
_ZN8pblczero14Weights_SEunit10descriptorEv T
_ZN8pblczero14Weights_SEunit10SharedCtorEv T
_ZN8pblczero14Weights_SEunit10SharedDtorEv T
_ZN8pblczero14Weights_SEunit12InternalSwapEPS0_ T
_ZN8pblczero14Weights_SEunit14kB1FieldNumberE R
_ZN8pblczero14Weights_SEunit14kB2FieldNumberE R
_ZN8pblczero14Weights_SEunit14kW1FieldNumberE R
_ZN8pblczero14Weights_SEunit14kW2FieldNumberE R
_ZN8pblczero14Weights_SEunit16default_instanceEv T
_ZN8pblczero14Weights_SEunit21InitAsDefaultInstanceEv T
_ZN8pblczero14Weights_SEunit27MergePartialFromCodedStreamEPN6google8protobuf2io16CodedInputStreamE T
_ZN8pblczero14Weights_SEunit4SwapEPS0_ T
_ZN8pblczero14Weights_SEunit5ClearEv T
_ZN8pblczero14Weights_SEunit8CopyFromERKN6google8protobuf7MessageE T
_ZN8pblczero14Weights_SEunit8CopyFromERKS0_ T
_ZN8pblczero14Weights_SEunit9MergeFromERKN6google8protobuf7MessageE T
_ZN8pblczero14Weights_SEunit9MergeFromERKS0_ T
_ZN8pblczero14Weights_SEunitC1ERKS0_ T
_ZN8pblczero14Weights_SEunitC1Ev T
_ZN8pblczero14Weights_SEunitC2ERKS0_ T
_ZN8pblczero14Weights_SEunitC2Ev T
_ZN8pblczero14Weights_SEunitD0Ev T
_ZN8pblczero14Weights_SEunitD1Ev T
_ZN8pblczero14Weights_SEunitD2Ev T
_ZN8pblczero16Weights_Residual10descriptorEv T
_ZN8pblczero16Weights_Residual10SharedCtorEv T
_ZN8pblczero16Weights_Residual10SharedDtorEv T
_ZN8pblczero16Weights_Residual12InternalSwapEPS0_ T
_ZN8pblczero16Weights_Residual14kSeFieldNumberE R
_ZN8pblczero16Weights_Residual16default_instanceEv T
_ZN8pblczero16Weights_Residual17kConv1FieldNumberE R
_ZN8pblczero16Weights_Residual17kConv2FieldNumberE R
_ZN8pblczero16Weights_Residual21InitAsDefaultInstanceEv T
_ZN8pblczero16Weights_Residual27MergePartialFromCodedStreamEPN6google8protobuf2io16CodedInputStreamE T
_ZN8pblczero16Weights_Residual4SwapEPS0_ T
_ZN8pblczero16Weights_Residual5ClearEv T
_ZN8pblczero16Weights_Residual8CopyFromERKN6google8protobuf7MessageE T
_ZN8pblczero16Weights_Residual8CopyFromERKS0_ T
_ZN8pblczero16Weights_Residual9MergeFromERKN6google8protobuf7MessageE T
_ZN8pblczero16Weights_Residual9MergeFromERKS0_ T
_ZN8pblczero16Weights_ResidualC1ERKS0_ T
_ZN8pblczero16Weights_ResidualC1Ev T
_ZN8pblczero16Weights_ResidualC2ERKS0_ T
_ZN8pblczero16Weights_ResidualC2Ev T
_ZN8pblczero16Weights_ResidualD0Ev T
_ZN8pblczero16Weights_ResidualD1Ev T
_ZN8pblczero16Weights_ResidualD2Ev T
_ZN8pblczero17Weights_ConvBlock10descriptorEv T
_ZN8pblczero17Weights_ConvBlock10SharedCtorEv T
_ZN8pblczero17Weights_ConvBlock10SharedDtorEv T
_ZN8pblczero17Weights_ConvBlock12InternalSwapEPS0_ T
_ZN8pblczero17Weights_ConvBlock16default_instanceEv T
_ZN8pblczero17Weights_ConvBlock18kBiasesFieldNumberE R
_ZN8pblczero17Weights_ConvBlock19kBnBetasFieldNumberE R
_ZN8pblczero17Weights_ConvBlock19kBnMeansFieldNumberE R
_ZN8pblczero17Weights_ConvBlock19kWeightsFieldNumberE R
_ZN8pblczero17Weights_ConvBlock20kBnGammasFieldNumberE R
_ZN8pblczero17Weights_ConvBlock21InitAsDefaultInstanceEv T
_ZN8pblczero17Weights_ConvBlock21kBnStddivsFieldNumberE R
_ZN8pblczero17Weights_ConvBlock27MergePartialFromCodedStreamEPN6google8protobuf2io16CodedInputStreamE T
_ZN8pblczero17Weights_ConvBlock4SwapEPS0_ T
_ZN8pblczero17Weights_ConvBlock5ClearEv T
_ZN8pblczero17Weights_ConvBlock8CopyFromERKN6google8protobuf7MessageE T
_ZN8pblczero17Weights_ConvBlock8CopyFromERKS0_ T
_ZN8pblczero17Weights_ConvBlock9MergeFromERKN6google8protobuf7MessageE T
_ZN8pblczero17Weights_ConvBlock9MergeFromERKS0_ T
_ZN8pblczero17Weights_ConvBlockC1ERKS0_ T
_ZN8pblczero17Weights_ConvBlockC1Ev T
_ZN8pblczero17Weights_ConvBlockC2ERKS0_ T
_ZN8pblczero17Weights_ConvBlockC2Ev T
_ZN8pblczero17Weights_ConvBlockD0Ev T
_ZN8pblczero17Weights_ConvBlockD1Ev T
_ZN8pblczero17Weights_ConvBlockD2Ev T
_ZN8pblczero22_Net_default_instance_E B
_ZN8pblczero23Format_Encoding_IsValidEi T
_ZN8pblczero25_Format_default_instance_E B
_ZN8pblczero26Format_Encoding_descriptorEv T
_ZN8pblczero26_Weights_default_instance_E B
_ZN8pblczero32_EngineVersion_default_instance_E B
_ZN8pblczero32_NetworkFormat_default_instance_E B
_ZN8pblczero32_Weights_Layer_default_instance_E B
_ZN8pblczero33NetworkFormat_InputFormat_IsValidEi T
_ZN8pblczero33NetworkFormat_ValueFormat_IsValidEi T
_ZN8pblczero33_TrainingParams_default_instance_E B
_ZN8pblczero33_Weights_SEunit_default_instance_E B
_ZN8pblczero34NetworkFormat_OutputFormat_IsValidEi T
_ZN8pblczero34NetworkFormat_PolicyFormat_IsValidEi T
_ZN8pblczero35_Weights_Residual_default_instance_E B
_ZN8pblczero36NetworkFormat_InputFormat_descriptorEv T
_ZN8pblczero36NetworkFormat_ValueFormat_descriptorEv T
_ZN8pblczero36_Weights_ConvBlock_default_instance_E B
_ZN8pblczero37NetworkFormat_OutputFormat_descriptorEv T
_ZN8pblczero37NetworkFormat_PolicyFormat_descriptorEv T
_ZN8pblczero38NetworkFormat_NetworkStructure_IsValidEi T
_ZN8pblczero3Net10descriptorEv T
_ZN8pblczero3Net10SharedCtorEv T
_ZN8pblczero3Net10SharedDtorEv T
_ZN8pblczero3Net12InternalSwapEPS0_ T
_ZN8pblczero3Net16default_instanceEv T
_ZN8pblczero3Net17kMagicFieldNumberE R
_ZN8pblczero3Net18kFormatFieldNumberE R
_ZN8pblczero3Net19kLicenseFieldNumberE R
_ZN8pblczero3Net19kWeightsFieldNumberE R
_ZN8pblczero3Net21InitAsDefaultInstanceEv T
_ZN8pblczero3Net22kMinVersionFieldNumberE R
_ZN8pblczero3Net26kTrainingParamsFieldNumberE R
_ZN8pblczero3Net27MergePartialFromCodedStreamEPN6google8protobuf2io16CodedInputStreamE T
_ZN8pblczero3Net4SwapEPS0_ T
_ZN8pblczero3Net5ClearEv T
_ZN8pblczero3Net8CopyFromERKN6google8protobuf7MessageE T
_ZN8pblczero3Net8CopyFromERKS0_ T
_ZN8pblczero3Net9MergeFromERKN6google8protobuf7MessageE T
_ZN8pblczero3Net9MergeFromERKS0_ T
_ZN8pblczero3NetC1ERKS0_ T
_ZN8pblczero3NetC1Ev T
_ZN8pblczero3NetC2ERKS0_ T
_ZN8pblczero3NetC2Ev T
_ZN8pblczero3NetD0Ev T
_ZN8pblczero3NetD1Ev T
_ZN8pblczero3NetD2Ev T
_ZN8pblczero41NetworkFormat_NetworkStructure_descriptorEv T
_ZN8pblczero6Format10descriptorEv T
_ZN8pblczero6Format10SharedCtorEv T
_ZN8pblczero6Format10SharedDtorEv T
_ZN8pblczero6Format12Encoding_MAXE R
_ZN8pblczero6Format12Encoding_MINE R
_ZN8pblczero6Format12InternalSwapEPS0_ T
_ZN8pblczero6Format16default_instanceEv T
_ZN8pblczero6Format18Encoding_ARRAYSIZEE R
_ZN8pblczero6Format21InitAsDefaultInstanceEv T
_ZN8pblczero6Format25kNetworkFormatFieldNumberE R
_ZN8pblczero6Format27kWeightsEncodingFieldNumberE R
_ZN8pblczero6Format27MergePartialFromCodedStreamEPN6google8protobuf2io16CodedInputStreamE T
_ZN8pblczero6Format4SwapEPS0_ T
_ZN8pblczero6Format5ClearEv T
_ZN8pblczero6Format7UNKNOWNE R
_ZN8pblczero6Format8CopyFromERKN6google8protobuf7MessageE T
_ZN8pblczero6Format8CopyFromERKS0_ T
_ZN8pblczero6Format8LINEAR16E R
_ZN8pblczero6Format9MergeFromERKN6google8protobuf7MessageE T
_ZN8pblczero6Format9MergeFromERKS0_ T
_ZN8pblczero6FormatC1ERKS0_ T
_ZN8pblczero6FormatC1Ev T
_ZN8pblczero6FormatC2ERKS0_ T
_ZN8pblczero6FormatC2Ev T
_ZN8pblczero6FormatD0Ev T
_ZN8pblczero6FormatD1Ev T
_ZN8pblczero6FormatD2Ev T
_ZN8pblczero7Weights10descriptorEv T
_ZN8pblczero7Weights10SharedCtorEv T
_ZN8pblczero7Weights10SharedDtorEv T
_ZN8pblczero7Weights12InternalSwapEPS0_ T
_ZN8pblczero7Weights16default_instanceEv T
_ZN8pblczero7Weights17kInputFieldNumberE R
_ZN8pblczero7Weights17kValueFieldNumberE R
_ZN8pblczero7Weights18kIpPolBFieldNumberE R
_ZN8pblczero7Weights18kIpPolWFieldNumberE R
_ZN8pblczero7Weights18kPolicyFieldNumberE R
_ZN8pblczero7Weights19kIp1ValBFieldNumberE R
_ZN8pblczero7Weights19kIp1ValWFieldNumberE R
_ZN8pblczero7Weights19kIp2ValBFieldNumberE R
_ZN8pblczero7Weights19kIp2ValWFieldNumberE R
_ZN8pblczero7Weights19kPolicy1FieldNumberE R
_ZN8pblczero7Weights20kResidualFieldNumberE R
_ZN8pblczero7Weights21InitAsDefaultInstanceEv T
_ZN8pblczero7Weights27MergePartialFromCodedStreamEPN6google8protobuf2io16CodedInputStreamE T
_ZN8pblczero7Weights4SwapEPS0_ T
_ZN8pblczero7Weights5ClearEv T
_ZN8pblczero7Weights8CopyFromERKN6google8protobuf7MessageE T
_ZN8pblczero7Weights8CopyFromERKS0_ T
_ZN8pblczero7Weights9MergeFromERKN6google8protobuf7MessageE T
_ZN8pblczero7Weights9MergeFromERKS0_ T
_ZN8pblczero7WeightsC1ERKS0_ T
_ZN8pblczero7WeightsC1Ev T
_ZN8pblczero7WeightsC2ERKS0_ T
_ZN8pblczero7WeightsC2Ev T
_ZN8pblczero7WeightsD0Ev T
_ZN8pblczero7WeightsD1Ev T
_ZN8pblczero7WeightsD2Ev T
_ZN9__gnu_cxx12__to_xstringINSt7__cxx1112basic_stringIcSt11char_traitsIcESaIcEEEcEET_PFiPT0_mPKS8_P13__va_list_tagEmSB_z W
_ZNK14OpenCL_Network15acquire_buffersEv T
_ZNK14OpenCL_Network15release_buffersESt10unique_ptrI13OpenCLBuffersSt14default_deleteIS1_EE T
_ZNK2cl5Error4whatEv W
_ZNK2cl6Device7getInfoINSt7__cxx1112basic_stringIcSt11char_traitsIcESaIcEEEEEijPT_ W
_ZNK2cl7Program12getBuildInfoILi4483EEESt6vectorISt4pairINS_6DeviceENS_6detail12param_traitsINS5_21cl_program_build_infoEXT_EE10param_typeEESaISA_EEPi W
_ZNK2cl8Platform7getInfoEjPNSt7__cxx1112basic_stringIcSt11char_traitsIcESaIcEEE W
_ZNK6google8protobuf11MessageLite16InternalGetTableEv W
_ZNK6google8protobuf11MessageLite20GetMaybeArenaPointerEv W
_ZNK6google8protobuf11MessageLite8GetArenaEv W
_ZNK6google8protobuf7Message13GetReflectionEv W
_ZNK6lczero10BoolOption15GetOptionStringB5cxx11ERKNS_11OptionsDictE T
_ZNK6lczero10BoolOption6GetValERKNS_11OptionsDictE T
_ZNK6lczero10BoolOption6SetValEPNS_11OptionsDictERKb T
_ZNK6lczero10BoolOption7GetHelpB5cxx11ERKNS_11OptionsDictE T
_ZNK6lczero10ChessBoard10en_passantEv T
_ZNK6lczero10ChessBoard11DebugStringB5cxx11Ev T
_ZNK6lczero10ChessBoard11IsLegalMoveENS_4MoveERKNS_14KingAttackInfoE T
_ZNK6lczero10ChessBoard13IsUnderAttackENS_11BoardSquareE T
_ZNK6lczero10ChessBoard17HasMatingMaterialEv T
_ZNK6lczero10ChessBoard18GenerateLegalMovesEv T
_ZNK6lczero10ChessBoard22GenerateKingAttackInfoEv T
_ZNK6lczero10ChessBoard24GeneratePseudolegalMovesEv T
_ZNK6lczero10ChessBoard5pawnsEv T
_ZNK6lczero11BoardSquare9as_stringB5cxx11Ev W
_ZNK6lczero11EdgeAndNode11DebugStringB5cxx11Ev T
_ZNK6lczero11FloatOption15GetOptionStringB5cxx11ERKNS_11OptionsDictE T
_ZNK6lczero11FloatOption6GetValERKNS_11OptionsDictE T
_ZNK6lczero11FloatOption6SetValEPNS_11OptionsDictERKf T
_ZNK6lczero11FloatOption7GetHelpB5cxx11ERKNS_11OptionsDictE T
_ZNK6lczero11OptionsDict10GetSubdictERKNSt7__cxx1112basic_stringIcSt11char_traitsIcESaIcEEE T
_ZNK6lczero11OptionsDict10HasSubdictERKNSt7__cxx1112basic_stringIcSt11char_traitsIcESaIcEEE T
_ZNK6lczero11OptionsDict12GetOrDefaultIbEET_RKNSt7__cxx1112basic_stringIcSt11char_traitsIcESaIcEEERKS2_ W
_ZNK6lczero11OptionsDict12GetOrDefaultIfEET_RKNSt7__cxx1112basic_stringIcSt11char_traitsIcESaIcEEERKS2_ W
_ZNK6lczero11OptionsDict12GetOrDefaultIiEET_RKNSt7__cxx1112basic_stringIcSt11char_traitsIcESaIcEEERKS2_ W
_ZNK6lczero11OptionsDict12GetOrDefaultINSt7__cxx1112basic_stringIcSt11char_traitsIcESaIcEEEEET_RKS7_RKS8_ W
_ZNK6lczero11OptionsDict12ListSubdictsB5cxx11Ev T
_ZNK6lczero11OptionsDict3GetIbEET_RKNSt7__cxx1112basic_stringIcSt11char_traitsIcESaIcEEE W
_ZNK6lczero11OptionsDict3GetIfEET_RKNSt7__cxx1112basic_stringIcSt11char_traitsIcESaIcEEE W
_ZNK6lczero11OptionsDict3GetIiEET_RKNSt7__cxx1112basic_stringIcSt11char_traitsIcESaIcEEE W
_ZNK6lczero11OptionsDict3GetINSt7__cxx1112basic_stringIcSt11char_traitsIcESaIcEEEEET_RKS7_ W
_ZNK6lczero12ChoiceOption15GetOptionStringB5cxx11ERKNS_11OptionsDictE T
_ZNK6lczero12ChoiceOption6GetValB5cxx11ERKNS_11OptionsDictE T
_ZNK6lczero12ChoiceOption6SetValEPNS_11OptionsDictERKNSt7__cxx1112basic_stringIcSt11char_traitsIcESaIcEEE T
_ZNK6lczero12ChoiceOption7GetHelpB5cxx11ERKNS_11OptionsDictE T
_ZNK6lczero12LayerAdapter8IteratordeEv T
_ZNK6lczero12LayerAdapter8IteratorixEm T
_ZNK6lczero12LayerAdapter9as_vectorEv T
_ZNK6lczero12SearchLimits11DebugStringB5cxx11Ev T
_ZNK6lczero12SelfPlayGame17WriteTrainingDataEPNS_18TrainingDataWriterE T
_ZNK6lczero12SelfPlayGame27GetWorstEvalForWinnerOrDrawEv T
_ZNK6lczero12SelfPlayGame8GetMovesEv T
_ZNK6lczero12StringOption15GetOptionStringB5cxx11ERKNS_11OptionsDictE T
_ZNK6lczero12StringOption6GetValB5cxx11ERKNS_11OptionsDictE T
_ZNK6lczero12StringOption6SetValEPNS_11OptionsDictERKNSt7__cxx1112basic_stringIcSt11char_traitsIcESaIcEEE T
_ZNK6lczero12StringOption7GetHelpB5cxx11ERKNS_11OptionsDictE T
_ZNK6lczero13OptionsParser10ShowHelpMdEv T
_ZNK6lczero13OptionsParser10ShowHiddenEv T
_ZNK6lczero13OptionsParser14FindOptionByIdERKNSt7__cxx1112basic_stringIcSt11char_traitsIcESaIcEEE T
_ZNK6lczero13OptionsParser14ListOptionsUciB5cxx11Ev T
_ZNK6lczero13OptionsParser19FindOptionByUciNameERKNSt7__cxx1112basic_stringIcSt11char_traitsIcESaIcEEE T
_ZNK6lczero13OptionsParser20FindOptionByLongFlagERKNSt7__cxx1112basic_stringIcSt11char_traitsIcESaIcEEE T
_ZNK6lczero13OptionsParser8ShowHelpEv T
_ZNK6lczero14NetworkFactory15GetBackendsListB5cxx11Ev T
_ZNK6lczero14NetworkFactory20BackendConfigurationeqERKS1_ T
_ZNK6lczero15PositionHistory17ComputeGameResultEv T
_ZNK6lczero15PositionHistory26ComputeLastMoveRepetitionsEv T
_ZNK6lczero15PositionHistory29DidRepeatSinceLastZeroingMoveEv T
_ZNK6lczero15PositionHistory8HashLastEi T
_ZNK6lczero18CachingComputation12GetBatchSizeEv T
_ZNK6lczero18CachingComputation14GetCacheMissesEv T
_ZNK6lczero18CachingComputation7GetDValEi T
_ZNK6lczero18CachingComputation7GetPValEii T
_ZNK6lczero18CachingComputation7GetQValEi T
_ZNK6lczero38SingleThreadBatchingNetworkComputation12GetBatchSizeEv W
_ZNK6lczero38SingleThreadBatchingNetworkComputation7GetDValEi T
_ZNK6lczero38SingleThreadBatchingNetworkComputation7GetPValEii T
_ZNK6lczero38SingleThreadBatchingNetworkComputation7GetQValEi T
_ZNK6lczero4Edge11DebugStringB5cxx11Ev T
_ZNK6lczero4Edge4GetPEv T
_ZNK6lczero4Edge7GetMoveEb T
_ZNK6lczero4Move11as_nn_indexEv T
_ZNK6lczero4Move13as_packed_intEv T
_ZNK6lczero4Move9as_stringB5cxx11Ev W
_ZNK6lczero4Node10ChildNodesEv T
_ZNK6lczero4Node10GetOwnEdgeEv T
_ZNK6lczero4Node11DebugStringB5cxx11Ev T
_ZNK6lczero4Node13GetEdgeToNodeEPKS0_ T
_ZNK6lczero4Node16GetVisitedPolicyEv T
_ZNK6lczero4Node17GetV4TrainingDataENS_10GameResultERKNS_15PositionHistoryENS_16FillEmptyHistoryEff T
_ZNK6lczero4Node5EdgesEv T
_ZNK6lczero6Search11GetBestEvalEv T
_ZNK6lczero6Search14IsSearchActiveEv T
_ZNK6lczero6Search14SendMovesStatsEv T
_ZNK6lczero6Search15GetCachedNNEvalEPNS_4NodeE T
_ZNK6lczero6Search15GetVerboseStatsB5cxx11EPNS_4NodeEb T
_ZNK6lczero6Search16GetTotalPlayoutsEv T
_ZNK6lczero6Search17GetTimeSinceStartEv T
_ZNK6lczero6Search17GetTimeToDeadlineEv T
_ZNK6lczero6Search21PopulateRootMoveLimitEPSt6vectorINS_4MoveESaIS2_EE T
_ZNK6lczero6Search25GetBestChildNoTemperatureEPNS_4NodeE T
_ZNK6lczero6Search27GetBestChildWithTemperatureEPNS_4NodeEf T
_ZNK6lczero6Search28GetBestChildrenNoTemperatureEPNS_4NodeEi T
_ZNK6lczero8Position11DebugStringB5cxx11Ev T
_ZNK6lczero8Position4HashEv T
_ZNK6lczero8Position9CanCastleENS0_8CastlingE T
_ZNK6lczero9Histogram4DumpEv T
_ZNK6lczero9Histogram8GetIndexEd T
_ZNK6lczero9IntOption15GetOptionStringB5cxx11ERKNS_11OptionsDictE T
_ZNK6lczero9IntOption6GetValERKNS_11OptionsDictE T
_ZNK6lczero9IntOption6SetValEPNS_11OptionsDictERKi T
_ZNK6lczero9IntOption7GetHelpB5cxx11ERKNS_11OptionsDictE T
_ZNK8pblczero13EngineVersion11GetMetadataEv T
_ZNK8pblczero13EngineVersion12ByteSizeLongEv T
_ZNK8pblczero13EngineVersion13GetCachedSizeEv W
_ZNK8pblczero13EngineVersion13IsInitializedEv T
_ZNK8pblczero13EngineVersion13SetCachedSizeEi T
_ZNK8pblczero13EngineVersion24SerializeWithCachedSizesEPN6google8protobuf2io17CodedOutputStreamE T
_ZNK8pblczero13EngineVersion39InternalSerializeWithCachedSizesToArrayEbPh T
_ZNK8pblczero13EngineVersion3NewEPN6google8protobuf5ArenaE T
_ZNK8pblczero13EngineVersion3NewEv W
_ZNK8pblczero13NetworkFormat11GetMetadataEv T
_ZNK8pblczero13NetworkFormat12ByteSizeLongEv T
_ZNK8pblczero13NetworkFormat13GetCachedSizeEv W
_ZNK8pblczero13NetworkFormat13IsInitializedEv T
_ZNK8pblczero13NetworkFormat13SetCachedSizeEi T
_ZNK8pblczero13NetworkFormat24SerializeWithCachedSizesEPN6google8protobuf2io17CodedOutputStreamE T
_ZNK8pblczero13NetworkFormat39InternalSerializeWithCachedSizesToArrayEbPh T
_ZNK8pblczero13NetworkFormat3NewEPN6google8protobuf5ArenaE T
_ZNK8pblczero13NetworkFormat3NewEv W
_ZNK8pblczero13Weights_Layer11GetMetadataEv T
_ZNK8pblczero13Weights_Layer12ByteSizeLongEv T
_ZNK8pblczero13Weights_Layer13GetCachedSizeEv W
_ZNK8pblczero13Weights_Layer13IsInitializedEv T
_ZNK8pblczero13Weights_Layer13SetCachedSizeEi T
_ZNK8pblczero13Weights_Layer24SerializeWithCachedSizesEPN6google8protobuf2io17CodedOutputStreamE T
_ZNK8pblczero13Weights_Layer39InternalSerializeWithCachedSizesToArrayEbPh T
_ZNK8pblczero13Weights_Layer3NewEPN6google8protobuf5ArenaE T
_ZNK8pblczero13Weights_Layer3NewEv W
_ZNK8pblczero14TrainingParams11GetMetadataEv T
_ZNK8pblczero14TrainingParams12ByteSizeLongEv T
_ZNK8pblczero14TrainingParams13GetCachedSizeEv W
_ZNK8pblczero14TrainingParams13IsInitializedEv T
_ZNK8pblczero14TrainingParams13SetCachedSizeEi T
_ZNK8pblczero14TrainingParams24SerializeWithCachedSizesEPN6google8protobuf2io17CodedOutputStreamE T
_ZNK8pblczero14TrainingParams39InternalSerializeWithCachedSizesToArrayEbPh T
_ZNK8pblczero14TrainingParams3NewEPN6google8protobuf5ArenaE T
_ZNK8pblczero14TrainingParams3NewEv W
_ZNK8pblczero14Weights_SEunit11GetMetadataEv T
_ZNK8pblczero14Weights_SEunit12ByteSizeLongEv T
_ZNK8pblczero14Weights_SEunit13GetCachedSizeEv W
_ZNK8pblczero14Weights_SEunit13IsInitializedEv T
_ZNK8pblczero14Weights_SEunit13SetCachedSizeEi T
_ZNK8pblczero14Weights_SEunit24SerializeWithCachedSizesEPN6google8protobuf2io17CodedOutputStreamE T
_ZNK8pblczero14Weights_SEunit39InternalSerializeWithCachedSizesToArrayEbPh T
_ZNK8pblczero14Weights_SEunit3NewEPN6google8protobuf5ArenaE T
_ZNK8pblczero14Weights_SEunit3NewEv W
_ZNK8pblczero16Weights_Residual11GetMetadataEv T
_ZNK8pblczero16Weights_Residual12ByteSizeLongEv T
_ZNK8pblczero16Weights_Residual13GetCachedSizeEv W
_ZNK8pblczero16Weights_Residual13IsInitializedEv T
_ZNK8pblczero16Weights_Residual13SetCachedSizeEi T
_ZNK8pblczero16Weights_Residual24SerializeWithCachedSizesEPN6google8protobuf2io17CodedOutputStreamE T
_ZNK8pblczero16Weights_Residual39InternalSerializeWithCachedSizesToArrayEbPh T
_ZNK8pblczero16Weights_Residual3NewEPN6google8protobuf5ArenaE T
_ZNK8pblczero16Weights_Residual3NewEv W
_ZNK8pblczero17Weights_ConvBlock11GetMetadataEv T
_ZNK8pblczero17Weights_ConvBlock12ByteSizeLongEv T
_ZNK8pblczero17Weights_ConvBlock13GetCachedSizeEv W
_ZNK8pblczero17Weights_ConvBlock13IsInitializedEv T
_ZNK8pblczero17Weights_ConvBlock13SetCachedSizeEi T
_ZNK8pblczero17Weights_ConvBlock24SerializeWithCachedSizesEPN6google8protobuf2io17CodedOutputStreamE T
_ZNK8pblczero17Weights_ConvBlock39InternalSerializeWithCachedSizesToArrayEbPh T
_ZNK8pblczero17Weights_ConvBlock3NewEPN6google8protobuf5ArenaE T
_ZNK8pblczero17Weights_ConvBlock3NewEv W
_ZNK8pblczero3Net11GetMetadataEv T
_ZNK8pblczero3Net12ByteSizeLongEv T
_ZNK8pblczero3Net13GetCachedSizeEv W
_ZNK8pblczero3Net13IsInitializedEv T
_ZNK8pblczero3Net13SetCachedSizeEi T
_ZNK8pblczero3Net24SerializeWithCachedSizesEPN6google8protobuf2io17CodedOutputStreamE T
_ZNK8pblczero3Net39InternalSerializeWithCachedSizesToArrayEbPh T
_ZNK8pblczero3Net3NewEPN6google8protobuf5ArenaE T
_ZNK8pblczero3Net3NewEv W
_ZNK8pblczero6Format11GetMetadataEv T
_ZNK8pblczero6Format12ByteSizeLongEv T
_ZNK8pblczero6Format13GetCachedSizeEv W
_ZNK8pblczero6Format13IsInitializedEv T
_ZNK8pblczero6Format13SetCachedSizeEi T
_ZNK8pblczero6Format24SerializeWithCachedSizesEPN6google8protobuf2io17CodedOutputStreamE T
_ZNK8pblczero6Format39InternalSerializeWithCachedSizesToArrayEbPh T
_ZNK8pblczero6Format3NewEPN6google8protobuf5ArenaE T
_ZNK8pblczero6Format3NewEv W
_ZNK8pblczero7Weights11GetMetadataEv T
_ZNK8pblczero7Weights12ByteSizeLongEv T
_ZNK8pblczero7Weights13GetCachedSizeEv W
_ZNK8pblczero7Weights13IsInitializedEv T
_ZNK8pblczero7Weights13SetCachedSizeEi T
_ZNK8pblczero7Weights24SerializeWithCachedSizesEPN6google8protobuf2io17CodedOutputStreamE T
_ZNK8pblczero7Weights39InternalSerializeWithCachedSizesToArrayEbPh T
_ZNK8pblczero7Weights3NewEPN6google8protobuf5ArenaE T
_ZNK8pblczero7Weights3NewEv W
_ZNKSt10_HashtableINSt7__cxx1112basic_stringIcSt11char_traitsIcESaIcEEESt4pairIKS5_S5_ESaIS8_ENSt8__detail10_Select1stESt8equal_toIS5_ESt4hashIS5_ENSA_18_Mod_range_hashingENSA_20_Default_ranged_hashENSA_20_Prime_rehash_policyENSA_17_Hashtable_traitsILb1ELb0ELb1EEEE4findERS7_ W
_ZNKSt5ctypeIcE8do_widenEc W
_ZNSt10_HashtableINSt7__cxx1112basic_stringIcSt11char_traitsIcESaIcEEES5_SaIS5_ENSt8__detail9_IdentityESt8equal_toIS5_ESt4hashIS5_ENS7_18_Mod_range_hashingENS7_20_Default_ranged_hashENS7_20_Prime_rehash_policyENS7_17_Hashtable_traitsILb1ELb1ELb1EEEE21_M_insert_unique_nodeEmmPNS7_10_Hash_nodeIS5_Lb1EEE W
_ZNSt10_HashtableINSt7__cxx1112basic_stringIcSt11char_traitsIcESaIcEEES5_SaIS5_ENSt8__detail9_IdentityESt8equal_toIS5_ESt4hashIS5_ENS7_18_Mod_range_hashingENS7_20_Default_ranged_hashENS7_20_Prime_rehash_policyENS7_17_Hashtable_traitsILb1ELb1ELb1EEEE5clearEv W
_ZNSt10_HashtableINSt7__cxx1112basic_stringIcSt11char_traitsIcESaIcEEES5_SaIS5_ENSt8__detail9_IdentityESt8equal_toIS5_ESt4hashIS5_ENS7_18_Mod_range_hashingENS7_20_Default_ranged_hashENS7_20_Prime_rehash_policyENS7_17_Hashtable_traitsILb1ELb1ELb1EEEE9_M_assignIZNSI_C4ERKSI_EUlPKNS7_10_Hash_nodeIS5_Lb1EEEE_EEvSL_RKT_ W
_ZNSt10_HashtableINSt7__cxx1112basic_stringIcSt11char_traitsIcESaIcEEES5_SaIS5_ENSt8__detail9_IdentityESt8equal_toIS5_ESt4hashIS5_ENS7_18_Mod_range_hashingENS7_20_Default_ranged_hashENS7_20_Prime_rehash_policyENS7_17_Hashtable_traitsILb1ELb1ELb1EEEE9_M_rehashEmRKm W
_ZNSt10_HashtableINSt7__cxx1112basic_stringIcSt11char_traitsIcESaIcEEES5_SaIS5_ENSt8__detail9_IdentityESt8equal_toIS5_ESt4hashIS5_ENS7_18_Mod_range_hashingENS7_20_Default_ranged_hashENS7_20_Prime_rehash_policyENS7_17_Hashtable_traitsILb1ELb1ELb1EEEEC1IPKS5_EET_SM_mRKSC_RKSD_RKSE_RKSA_RKS8_RKS6_ W
_ZNSt10_HashtableINSt7__cxx1112basic_stringIcSt11char_traitsIcESaIcEEES5_SaIS5_ENSt8__detail9_IdentityESt8equal_toIS5_ESt4hashIS5_ENS7_18_Mod_range_hashingENS7_20_Default_ranged_hashENS7_20_Prime_rehash_policyENS7_17_Hashtable_traitsILb1ELb1ELb1EEEEC2IPKS5_EET_SM_mRKSC_RKSD_RKSE_RKSA_RKS8_RKS6_ W
_ZNSt10_HashtableINSt7__cxx1112basic_stringIcSt11char_traitsIcESaIcEEES5_SaIS5_ENSt8__detail9_IdentityESt8equal_toIS5_ESt4hashIS5_ENS7_18_Mod_range_hashingENS7_20_Default_ranged_hashENS7_20_Prime_rehash_policyENS7_17_Hashtable_traitsILb1ELb1ELb1EEEED1Ev W
_ZNSt10_HashtableINSt7__cxx1112basic_stringIcSt11char_traitsIcESaIcEEES5_SaIS5_ENSt8__detail9_IdentityESt8equal_toIS5_ESt4hashIS5_ENS7_18_Mod_range_hashingENS7_20_Default_ranged_hashENS7_20_Prime_rehash_policyENS7_17_Hashtable_traitsILb1ELb1ELb1EEEED2Ev W
_ZNSt10_HashtableINSt7__cxx1112basic_stringIcSt11char_traitsIcESaIcEEESt4pairIKS5_bESaIS8_ENSt8__detail10_Select1stESt8equal_toIS5_ESt4hashIS5_ENSA_18_Mod_range_hashingENSA_20_Default_ranged_hashENSA_20_Prime_rehash_policyENSA_17_Hashtable_traitsILb1ELb0ELb1EEEE21_M_insert_unique_nodeEmmPNSA_10_Hash_nodeIS8_Lb1EEE W
_ZNSt10_HashtableINSt7__cxx1112basic_stringIcSt11char_traitsIcESaIcEEESt4pairIKS5_bESaIS8_ENSt8__detail10_Select1stESt8equal_toIS5_ESt4hashIS5_ENSA_18_Mod_range_hashingENSA_20_Default_ranged_hashENSA_20_Prime_rehash_policyENSA_17_Hashtable_traitsILb1ELb0ELb1EEEE5clearEv W
_ZNSt10_HashtableINSt7__cxx1112basic_stringIcSt11char_traitsIcESaIcEEESt4pairIKS5_bESaIS8_ENSt8__detail10_Select1stESt8equal_toIS5_ESt4hashIS5_ENSA_18_Mod_range_hashingENSA_20_Default_ranged_hashENSA_20_Prime_rehash_policyENSA_17_Hashtable_traitsILb1ELb0ELb1EEEE9_M_assignIZNSL_aSERKSL_EUlPKNSA_10_Hash_nodeIS8_Lb1EEEE0_EEvSO_RKT_ W
_ZNSt10_HashtableINSt7__cxx1112basic_stringIcSt11char_traitsIcESaIcEEESt4pairIKS5_bESaIS8_ENSt8__detail10_Select1stESt8equal_toIS5_ESt4hashIS5_ENSA_18_Mod_range_hashingENSA_20_Default_ranged_hashENSA_20_Prime_rehash_policyENSA_17_Hashtable_traitsILb1ELb0ELb1EEEE9_M_assignIZNSL_C4ERKSL_EUlPKNSA_10_Hash_nodeIS8_Lb1EEEE_EEvSO_RKT_ W
_ZNSt10_HashtableINSt7__cxx1112basic_stringIcSt11char_traitsIcESaIcEEESt4pairIKS5_bESaIS8_ENSt8__detail10_Select1stESt8equal_toIS5_ESt4hashIS5_ENSA_18_Mod_range_hashingENSA_20_Default_ranged_hashENSA_20_Prime_rehash_policyENSA_17_Hashtable_traitsILb1ELb0ELb1EEEE9_M_rehashEmRKm W
_ZNSt10_HashtableINSt7__cxx1112basic_stringIcSt11char_traitsIcESaIcEEESt4pairIKS5_bESaIS8_ENSt8__detail10_Select1stESt8equal_toIS5_ESt4hashIS5_ENSA_18_Mod_range_hashingENSA_20_Default_ranged_hashENSA_20_Prime_rehash_policyENSA_17_Hashtable_traitsILb1ELb0ELb1EEEEaSERKSL_ W
_ZNSt10_HashtableINSt7__cxx1112basic_stringIcSt11char_traitsIcESaIcEEESt4pairIKS5_bESaIS8_ENSt8__detail10_Select1stESt8equal_toIS5_ESt4hashIS5_ENSA_18_Mod_range_hashingENSA_20_Default_ranged_hashENSA_20_Prime_rehash_policyENSA_17_Hashtable_traitsILb1ELb0ELb1EEEED1Ev W
_ZNSt10_HashtableINSt7__cxx1112basic_stringIcSt11char_traitsIcESaIcEEESt4pairIKS5_bESaIS8_ENSt8__detail10_Select1stESt8equal_toIS5_ESt4hashIS5_ENSA_18_Mod_range_hashingENSA_20_Default_ranged_hashENSA_20_Prime_rehash_policyENSA_17_Hashtable_traitsILb1ELb0ELb1EEEED2Ev W
_ZNSt10_HashtableINSt7__cxx1112basic_stringIcSt11char_traitsIcESaIcEEESt4pairIKS5_fESaIS8_ENSt8__detail10_Select1stESt8equal_toIS5_ESt4hashIS5_ENSA_18_Mod_range_hashingENSA_20_Default_ranged_hashENSA_20_Prime_rehash_policyENSA_17_Hashtable_traitsILb1ELb0ELb1EEEE21_M_insert_unique_nodeEmmPNSA_10_Hash_nodeIS8_Lb1EEE W
_ZNSt10_HashtableINSt7__cxx1112basic_stringIcSt11char_traitsIcESaIcEEESt4pairIKS5_fESaIS8_ENSt8__detail10_Select1stESt8equal_toIS5_ESt4hashIS5_ENSA_18_Mod_range_hashingENSA_20_Default_ranged_hashENSA_20_Prime_rehash_policyENSA_17_Hashtable_traitsILb1ELb0ELb1EEEE5clearEv W
_ZNSt10_HashtableINSt7__cxx1112basic_stringIcSt11char_traitsIcESaIcEEESt4pairIKS5_fESaIS8_ENSt8__detail10_Select1stESt8equal_toIS5_ESt4hashIS5_ENSA_18_Mod_range_hashingENSA_20_Default_ranged_hashENSA_20_Prime_rehash_policyENSA_17_Hashtable_traitsILb1ELb0ELb1EEEE9_M_assignIZNSL_aSERKSL_EUlPKNSA_10_Hash_nodeIS8_Lb1EEEE0_EEvSO_RKT_ W
_ZNSt10_HashtableINSt7__cxx1112basic_stringIcSt11char_traitsIcESaIcEEESt4pairIKS5_fESaIS8_ENSt8__detail10_Select1stESt8equal_toIS5_ESt4hashIS5_ENSA_18_Mod_range_hashingENSA_20_Default_ranged_hashENSA_20_Prime_rehash_policyENSA_17_Hashtable_traitsILb1ELb0ELb1EEEE9_M_assignIZNSL_C4ERKSL_EUlPKNSA_10_Hash_nodeIS8_Lb1EEEE_EEvSO_RKT_ W
_ZNSt10_HashtableINSt7__cxx1112basic_stringIcSt11char_traitsIcESaIcEEESt4pairIKS5_fESaIS8_ENSt8__detail10_Select1stESt8equal_toIS5_ESt4hashIS5_ENSA_18_Mod_range_hashingENSA_20_Default_ranged_hashENSA_20_Prime_rehash_policyENSA_17_Hashtable_traitsILb1ELb0ELb1EEEE9_M_rehashEmRKm W
_ZNSt10_HashtableINSt7__cxx1112basic_stringIcSt11char_traitsIcESaIcEEESt4pairIKS5_fESaIS8_ENSt8__detail10_Select1stESt8equal_toIS5_ESt4hashIS5_ENSA_18_Mod_range_hashingENSA_20_Default_ranged_hashENSA_20_Prime_rehash_policyENSA_17_Hashtable_traitsILb1ELb0ELb1EEEEaSERKSL_ W
_ZNSt10_HashtableINSt7__cxx1112basic_stringIcSt11char_traitsIcESaIcEEESt4pairIKS5_fESaIS8_ENSt8__detail10_Select1stESt8equal_toIS5_ESt4hashIS5_ENSA_18_Mod_range_hashingENSA_20_Default_ranged_hashENSA_20_Prime_rehash_policyENSA_17_Hashtable_traitsILb1ELb0ELb1EEEED1Ev W
_ZNSt10_HashtableINSt7__cxx1112basic_stringIcSt11char_traitsIcESaIcEEESt4pairIKS5_fESaIS8_ENSt8__detail10_Select1stESt8equal_toIS5_ESt4hashIS5_ENSA_18_Mod_range_hashingENSA_20_Default_ranged_hashENSA_20_Prime_rehash_policyENSA_17_Hashtable_traitsILb1ELb0ELb1EEEED2Ev W
_ZNSt10_HashtableINSt7__cxx1112basic_stringIcSt11char_traitsIcESaIcEEESt4pairIKS5_iESaIS8_ENSt8__detail10_Select1stESt8equal_toIS5_ESt4hashIS5_ENSA_18_Mod_range_hashingENSA_20_Default_ranged_hashENSA_20_Prime_rehash_policyENSA_17_Hashtable_traitsILb1ELb0ELb1EEEE21_M_insert_unique_nodeEmmPNSA_10_Hash_nodeIS8_Lb1EEE W
_ZNSt10_HashtableINSt7__cxx1112basic_stringIcSt11char_traitsIcESaIcEEESt4pairIKS5_iESaIS8_ENSt8__detail10_Select1stESt8equal_toIS5_ESt4hashIS5_ENSA_18_Mod_range_hashingENSA_20_Default_ranged_hashENSA_20_Prime_rehash_policyENSA_17_Hashtable_traitsILb1ELb0ELb1EEEE5clearEv W
_ZNSt10_HashtableINSt7__cxx1112basic_stringIcSt11char_traitsIcESaIcEEESt4pairIKS5_iESaIS8_ENSt8__detail10_Select1stESt8equal_toIS5_ESt4hashIS5_ENSA_18_Mod_range_hashingENSA_20_Default_ranged_hashENSA_20_Prime_rehash_policyENSA_17_Hashtable_traitsILb1ELb0ELb1EEEE9_M_assignIZNSL_aSERKSL_EUlPKNSA_10_Hash_nodeIS8_Lb1EEEE0_EEvSO_RKT_ W
_ZNSt10_HashtableINSt7__cxx1112basic_stringIcSt11char_traitsIcESaIcEEESt4pairIKS5_iESaIS8_ENSt8__detail10_Select1stESt8equal_toIS5_ESt4hashIS5_ENSA_18_Mod_range_hashingENSA_20_Default_ranged_hashENSA_20_Prime_rehash_policyENSA_17_Hashtable_traitsILb1ELb0ELb1EEEE9_M_assignIZNSL_C4ERKSL_EUlPKNSA_10_Hash_nodeIS8_Lb1EEEE_EEvSO_RKT_ W
_ZNSt10_HashtableINSt7__cxx1112basic_stringIcSt11char_traitsIcESaIcEEESt4pairIKS5_iESaIS8_ENSt8__detail10_Select1stESt8equal_toIS5_ESt4hashIS5_ENSA_18_Mod_range_hashingENSA_20_Default_ranged_hashENSA_20_Prime_rehash_policyENSA_17_Hashtable_traitsILb1ELb0ELb1EEEE9_M_rehashEmRKm W
_ZNSt10_HashtableINSt7__cxx1112basic_stringIcSt11char_traitsIcESaIcEEESt4pairIKS5_iESaIS8_ENSt8__detail10_Select1stESt8equal_toIS5_ESt4hashIS5_ENSA_18_Mod_range_hashingENSA_20_Default_ranged_hashENSA_20_Prime_rehash_policyENSA_17_Hashtable_traitsILb1ELb0ELb1EEEEaSERKSL_ W
_ZNSt10_HashtableINSt7__cxx1112basic_stringIcSt11char_traitsIcESaIcEEESt4pairIKS5_iESaIS8_ENSt8__detail10_Select1stESt8equal_toIS5_ESt4hashIS5_ENSA_18_Mod_range_hashingENSA_20_Default_ranged_hashENSA_20_Prime_rehash_policyENSA_17_Hashtable_traitsILb1ELb0ELb1EEEED1Ev W
_ZNSt10_HashtableINSt7__cxx1112basic_stringIcSt11char_traitsIcESaIcEEESt4pairIKS5_iESaIS8_ENSt8__detail10_Select1stESt8equal_toIS5_ESt4hashIS5_ENSA_18_Mod_range_hashingENSA_20_Default_ranged_hashENSA_20_Prime_rehash_policyENSA_17_Hashtable_traitsILb1ELb0ELb1EEEED2Ev W
_ZNSt10_HashtableINSt7__cxx1112basic_stringIcSt11char_traitsIcESaIcEEESt4pairIKS5_S5_ESaIS8_ENSt8__detail10_Select1stESt8equal_toIS5_ESt4hashIS5_ENSA_18_Mod_range_hashingENSA_20_Default_ranged_hashENSA_20_Prime_rehash_policyENSA_17_Hashtable_traitsILb1ELb0ELb1EEEE21_M_insert_unique_nodeEmmPNSA_10_Hash_nodeIS8_Lb1EEE W
_ZNSt10_HashtableINSt7__cxx1112basic_stringIcSt11char_traitsIcESaIcEEESt4pairIKS5_S5_ESaIS8_ENSt8__detail10_Select1stESt8equal_toIS5_ESt4hashIS5_ENSA_18_Mod_range_hashingENSA_20_Default_ranged_hashENSA_20_Prime_rehash_policyENSA_17_Hashtable_traitsILb1ELb0ELb1EEEE5clearEv W
_ZNSt10_HashtableINSt7__cxx1112basic_stringIcSt11char_traitsIcESaIcEEESt4pairIKS5_S5_ESaIS8_ENSt8__detail10_Select1stESt8equal_toIS5_ESt4hashIS5_ENSA_18_Mod_range_hashingENSA_20_Default_ranged_hashENSA_20_Prime_rehash_policyENSA_17_Hashtable_traitsILb1ELb0ELb1EEEE9_M_assignIZNSL_aSERKSL_EUlPKNSA_10_Hash_nodeIS8_Lb1EEEE0_EEvSO_RKT_ W
_ZNSt10_HashtableINSt7__cxx1112basic_stringIcSt11char_traitsIcESaIcEEESt4pairIKS5_S5_ESaIS8_ENSt8__detail10_Select1stESt8equal_toIS5_ESt4hashIS5_ENSA_18_Mod_range_hashingENSA_20_Default_ranged_hashENSA_20_Prime_rehash_policyENSA_17_Hashtable_traitsILb1ELb0ELb1EEEE9_M_assignIZNSL_C4ERKSL_EUlPKNSA_10_Hash_nodeIS8_Lb1EEEE_EEvSO_RKT_ W
_ZNSt10_HashtableINSt7__cxx1112basic_stringIcSt11char_traitsIcESaIcEEESt4pairIKS5_S5_ESaIS8_ENSt8__detail10_Select1stESt8equal_toIS5_ESt4hashIS5_ENSA_18_Mod_range_hashingENSA_20_Default_ranged_hashENSA_20_Prime_rehash_policyENSA_17_Hashtable_traitsILb1ELb0ELb1EEEE9_M_rehashEmRKm W
_ZNSt10_HashtableINSt7__cxx1112basic_stringIcSt11char_traitsIcESaIcEEESt4pairIKS5_S5_ESaIS8_ENSt8__detail10_Select1stESt8equal_toIS5_ESt4hashIS5_ENSA_18_Mod_range_hashingENSA_20_Default_ranged_hashENSA_20_Prime_rehash_policyENSA_17_Hashtable_traitsILb1ELb0ELb1EEEEaSERKSL_ W
_ZNSt10_HashtableINSt7__cxx1112basic_stringIcSt11char_traitsIcESaIcEEESt4pairIKS5_S5_ESaIS8_ENSt8__detail10_Select1stESt8equal_toIS5_ESt4hashIS5_ENSA_18_Mod_range_hashingENSA_20_Default_ranged_hashENSA_20_Prime_rehash_policyENSA_17_Hashtable_traitsILb1ELb0ELb1EEEED1Ev W
_ZNSt10_HashtableINSt7__cxx1112basic_stringIcSt11char_traitsIcESaIcEEESt4pairIKS5_S5_ESaIS8_ENSt8__detail10_Select1stESt8equal_toIS5_ESt4hashIS5_ENSA_18_Mod_range_hashingENSA_20_Default_ranged_hashENSA_20_Prime_rehash_policyENSA_17_Hashtable_traitsILb1ELb0ELb1EEEED2Ev W
_ZNSt10_HashtableINSt7__cxx1112basic_stringIcSt11char_traitsIcESaIcEEESt4pairIKS5_St13unordered_setIS5_St4hashIS5_ESt8equal_toIS5_ESaIS5_EEESaISF_ENSt8__detail10_Select1stESC_SA_NSH_18_Mod_range_hashingENSH_20_Default_ranged_hashENSH_20_Prime_rehash_policyENSH_17_Hashtable_traitsILb1ELb0ELb1EEEE21_M_insert_unique_nodeEmmPNSH_10_Hash_nodeISF_Lb1EEE W
_ZNSt10_HashtableINSt7__cxx1112basic_stringIcSt11char_traitsIcESaIcEEESt4pairIKS5_St13unordered_setIS5_St4hashIS5_ESt8equal_toIS5_ESaIS5_EEESaISF_ENSt8__detail10_Select1stESC_SA_NSH_18_Mod_range_hashingENSH_20_Default_ranged_hashENSH_20_Prime_rehash_policyENSH_17_Hashtable_traitsILb1ELb0ELb1EEEE5clearEv W
_ZNSt10_HashtableINSt7__cxx1112basic_stringIcSt11char_traitsIcESaIcEEESt4pairIKS5_St13unordered_setIS5_St4hashIS5_ESt8equal_toIS5_ESaIS5_EEESaISF_ENSt8__detail10_Select1stESC_SA_NSH_18_Mod_range_hashingENSH_20_Default_ranged_hashENSH_20_Prime_rehash_policyENSH_17_Hashtable_traitsILb1ELb0ELb1EEEE9_M_rehashEmRKm W
_ZNSt10_HashtableINSt7__cxx1112basic_stringIcSt11char_traitsIcESaIcEEESt4pairIKS5_St13unordered_setIS5_St4hashIS5_ESt8equal_toIS5_ESaIS5_EEESaISF_ENSt8__detail10_Select1stESC_SA_NSH_18_Mod_range_hashingENSH_20_Default_ranged_hashENSH_20_Prime_rehash_policyENSH_17_Hashtable_traitsILb1ELb0ELb1EEEED1Ev W
_ZNSt10_HashtableINSt7__cxx1112basic_stringIcSt11char_traitsIcESaIcEEESt4pairIKS5_St13unordered_setIS5_St4hashIS5_ESt8equal_toIS5_ESaIS5_EEESaISF_ENSt8__detail10_Select1stESC_SA_NSH_18_Mod_range_hashingENSH_20_Default_ranged_hashENSH_20_Prime_rehash_policyENSH_17_Hashtable_traitsILb1ELb0ELb1EEEED2Ev W
_ZNSt11shared_lockIN6lczero13RpSharedMutexEED1Ev W
_ZNSt11shared_lockIN6lczero13RpSharedMutexEED2Ev W
_ZNSt11unique_lockISt18shared_timed_mutexE6unlockEv W
_ZNSt11unique_lockISt5mutexE6unlockEv W
_ZNSt12_Destroy_auxILb0EE9__destroyIPN2cl6DeviceEEEvT_S5_ W
_ZNSt13unordered_mapINSt7__cxx1112basic_stringIcSt11char_traitsIcESaIcEEESt13unordered_setIS5_St4hashIS5_ESt8equal_toIS5_ESaIS5_EES8_SA_SaISt4pairIKS5_SC_EEED1Ev W
_ZNSt13unordered_mapINSt7__cxx1112basic_stringIcSt11char_traitsIcESaIcEEESt13unordered_setIS5_St4hashIS5_ESt8equal_toIS5_ESaIS5_EES8_SA_SaISt4pairIKS5_SC_EEED2Ev W
_ZNSt14_Function_base13_Base_managerISt5_BindIFSt7_Mem_fnIMN6lczero12SelfPlayLoopEFvRKNS3_14TournamentInfoEEEPS4_St12_PlaceholderILi1EEEEE10_M_managerERSt9_Any_dataRKSH_St18_Manager_operation W
_ZNSt14_Function_base13_Base_managerISt5_BindIFSt7_Mem_fnIMN6lczero12SelfPlayLoopEFvRKNS3_8GameInfoEEEPS4_St12_PlaceholderILi1EEEEE10_M_managerERSt9_Any_dataRKSH_St18_Manager_operation W
_ZNSt14_Function_base13_Base_managerISt5_BindIFSt7_Mem_fnIMN6lczero7UciLoopEFvRKNS3_12BestMoveInfoEEEPNS3_10EngineLoopESt12_PlaceholderILi1EEEEE10_M_managerERSt9_Any_dataRKSI_St18_Manager_operation W
_ZNSt14_Function_base13_Base_managerISt5_BindIFSt7_Mem_fnIMN6lczero7UciLoopEFvRKNS3_12BestMoveInfoEEEPNS3_12SelfPlayLoopESt12_PlaceholderILi1EEEEE10_M_managerERSt9_Any_dataRKSI_St18_Manager_operation W
_ZNSt14_Function_base13_Base_managerISt5_BindIFSt7_Mem_fnIMN6lczero7UciLoopEFvRKSt6vectorINS3_12ThinkingInfoESaIS6_EEEEPNS3_10EngineLoopESt12_PlaceholderILi1EEEEE10_M_managerERSt9_Any_dataRKSL_St18_Manager_operation W
_ZNSt14_Function_base13_Base_managerISt5_BindIFSt7_Mem_fnIMN6lczero7UciLoopEFvRKSt6vectorINS3_12ThinkingInfoESaIS6_EEEEPNS3_12SelfPlayLoopESt12_PlaceholderILi1EEEEE10_M_managerERSt9_Any_dataRKSL_St18_Manager_operation W
_ZNSt14_Function_base13_Base_managerISt5_BindIFSt7_Mem_fnIMN6lczero9BenchmarkEFvRKNS3_12BestMoveInfoEEEPS4_St12_PlaceholderILi1EEEEE10_M_managerERSt9_Any_dataRKSH_St18_Manager_operation W
_ZNSt14_Function_base13_Base_managerISt5_BindIFSt7_Mem_fnIMN6lczero9BenchmarkEFvRKSt6vectorINS3_12ThinkingInfoESaIS6_EEEEPS4_St12_PlaceholderILi1EEEEE10_M_managerERSt9_Any_dataRKSK_St18_Manager_operation W
_ZNSt16_Sp_counted_baseILN9__gnu_cxx12_Lock_policyE2EE10_M_destroyEv W
_ZNSt16_Sp_counted_baseILN9__gnu_cxx12_Lock_policyE2EE10_M_releaseEv W
_ZNSt17_Function_handlerIFvRKN6lczero12BestMoveInfoEESt5_BindIFSt7_Mem_fnIMNS0_7UciLoopEFvS3_EEPNS0_10EngineLoopESt12_PlaceholderILi1EEEEE9_M_invokeERKSt9_Any_dataS3_ W
_ZNSt17_Function_handlerIFvRKN6lczero12BestMoveInfoEESt5_BindIFSt7_Mem_fnIMNS0_7UciLoopEFvS3_EEPNS0_12SelfPlayLoopESt12_PlaceholderILi1EEEEE9_M_invokeERKSt9_Any_dataS3_ W
_ZNSt17_Function_handlerIFvRKN6lczero12BestMoveInfoEESt5_BindIFSt7_Mem_fnIMNS0_9BenchmarkEFvS3_EEPS7_St12_PlaceholderILi1EEEEE9_M_invokeERKSt9_Any_dataS3_ W
_ZNSt17_Function_handlerIFvRKN6lczero14TournamentInfoEESt5_BindIFSt7_Mem_fnIMNS0_12SelfPlayLoopEFvS3_EEPS7_St12_PlaceholderILi1EEEEE9_M_invokeERKSt9_Any_dataS3_ W
_ZNSt17_Function_handlerIFvRKN6lczero8GameInfoEESt5_BindIFSt7_Mem_fnIMNS0_12SelfPlayLoopEFvS3_EEPS7_St12_PlaceholderILi1EEEEE9_M_invokeERKSt9_Any_dataS3_ W
_ZNSt17_Function_handlerIFvRKSt6vectorIN6lczero12ThinkingInfoESaIS2_EEESt5_BindIFSt7_Mem_fnIMNS1_7UciLoopEFvS6_EEPNS1_10EngineLoopESt12_PlaceholderILi1EEEEE9_M_invokeERKSt9_Any_dataS6_ W
_ZNSt17_Function_handlerIFvRKSt6vectorIN6lczero12ThinkingInfoESaIS2_EEESt5_BindIFSt7_Mem_fnIMNS1_7UciLoopEFvS6_EEPNS1_12SelfPlayLoopESt12_PlaceholderILi1EEEEE9_M_invokeERKSt9_Any_dataS6_ W
_ZNSt17_Function_handlerIFvRKSt6vectorIN6lczero12ThinkingInfoESaIS2_EEESt5_BindIFSt7_Mem_fnIMNS1_9BenchmarkEFvS6_EEPSA_St12_PlaceholderILi1EEEEE9_M_invokeERKSt9_Any_dataS6_ W
_ZNSt18gamma_distributionIdEclISt23mersenne_twister_engineImLm32ELm624ELm397ELm31ELm2567483615ELm11ELm4294967295ELm7ELm2636928640ELm15ELm4022730752ELm18ELm1812433253EEEEdRT_RKNS0_10param_typeE W
_ZNSt19_Sp_counted_deleterIPN6lczero18NetworkComputationESt14default_deleteIS1_ESaIvELN9__gnu_cxx12_Lock_policyE2EE10_M_destroyEv W
_ZNSt19_Sp_counted_deleterIPN6lczero18NetworkComputationESt14default_deleteIS1_ESaIvELN9__gnu_cxx12_Lock_policyE2EE10_M_disposeEv W
_ZNSt19_Sp_counted_deleterIPN6lczero18NetworkComputationESt14default_deleteIS1_ESaIvELN9__gnu_cxx12_Lock_policyE2EE14_M_get_deleterERKSt9type_info W
_ZNSt19_Sp_counted_deleterIPN6lczero18NetworkComputationESt14default_deleteIS1_ESaIvELN9__gnu_cxx12_Lock_policyE2EED0Ev W
_ZNSt19_Sp_counted_deleterIPN6lczero18NetworkComputationESt14default_deleteIS1_ESaIvELN9__gnu_cxx12_Lock_policyE2EED1Ev W
_ZNSt19_Sp_counted_deleterIPN6lczero18NetworkComputationESt14default_deleteIS1_ESaIvELN9__gnu_cxx12_Lock_policyE2EED2Ev W
_ZNSt19_Sp_counted_deleterIPN6lczero7NetworkESt14default_deleteIS1_ESaIvELN9__gnu_cxx12_Lock_policyE2EE10_M_destroyEv W
_ZNSt19_Sp_counted_deleterIPN6lczero7NetworkESt14default_deleteIS1_ESaIvELN9__gnu_cxx12_Lock_policyE2EE10_M_disposeEv W
_ZNSt19_Sp_counted_deleterIPN6lczero7NetworkESt14default_deleteIS1_ESaIvELN9__gnu_cxx12_Lock_policyE2EE14_M_get_deleterERKSt9type_info W
_ZNSt19_Sp_counted_deleterIPN6lczero7NetworkESt14default_deleteIS1_ESaIvELN9__gnu_cxx12_Lock_policyE2EED0Ev W
_ZNSt19_Sp_counted_deleterIPN6lczero7NetworkESt14default_deleteIS1_ESaIvELN9__gnu_cxx12_Lock_policyE2EED1Ev W
_ZNSt19_Sp_counted_deleterIPN6lczero7NetworkESt14default_deleteIS1_ESaIvELN9__gnu_cxx12_Lock_policyE2EED2Ev W
_ZNSt23mersenne_twister_engineImLm32ELm624ELm397ELm31ELm2567483615ELm11ELm4294967295ELm7ELm2636928640ELm15ELm4022730752ELm18ELm1812433253EEclEv W
_ZNSt23_Sp_counted_ptr_inplaceIN6lczero8LruCacheImNS0_15CachedNNRequestEEESaIS3_ELN9__gnu_cxx12_Lock_policyE2EE10_M_destroyEv W
_ZNSt23_Sp_counted_ptr_inplaceIN6lczero8LruCacheImNS0_15CachedNNRequestEEESaIS3_ELN9__gnu_cxx12_Lock_policyE2EE10_M_disposeEv W
_ZNSt23_Sp_counted_ptr_inplaceIN6lczero8LruCacheImNS0_15CachedNNRequestEEESaIS3_ELN9__gnu_cxx12_Lock_policyE2EE14_M_get_deleterERKSt9type_info W
_ZNSt23_Sp_counted_ptr_inplaceIN6lczero8LruCacheImNS0_15CachedNNRequestEEESaIS3_ELN9__gnu_cxx12_Lock_policyE2EED0Ev W
_ZNSt23_Sp_counted_ptr_inplaceIN6lczero8LruCacheImNS0_15CachedNNRequestEEESaIS3_ELN9__gnu_cxx12_Lock_policyE2EED1Ev W
_ZNSt23_Sp_counted_ptr_inplaceIN6lczero8LruCacheImNS0_15CachedNNRequestEEESaIS3_ELN9__gnu_cxx12_Lock_policyE2EED2Ev W
_ZNSt23_Sp_counted_ptr_inplaceIN6lczero8NodeTreeESaIS1_ELN9__gnu_cxx12_Lock_policyE2EE10_M_destroyEv W
_ZNSt23_Sp_counted_ptr_inplaceIN6lczero8NodeTreeESaIS1_ELN9__gnu_cxx12_Lock_policyE2EE10_M_disposeEv W
_ZNSt23_Sp_counted_ptr_inplaceIN6lczero8NodeTreeESaIS1_ELN9__gnu_cxx12_Lock_policyE2EE14_M_get_deleterERKSt9type_info W
_ZNSt23_Sp_counted_ptr_inplaceIN6lczero8NodeTreeESaIS1_ELN9__gnu_cxx12_Lock_policyE2EED0Ev W
_ZNSt23_Sp_counted_ptr_inplaceIN6lczero8NodeTreeESaIS1_ELN9__gnu_cxx12_Lock_policyE2EED1Ev W
_ZNSt23_Sp_counted_ptr_inplaceIN6lczero8NodeTreeESaIS1_ELN9__gnu_cxx12_Lock_policyE2EED2Ev W
_ZNSt24uniform_int_distributionIiEclISt23mersenne_twister_engineImLm32ELm624ELm397ELm31ELm2567483615ELm11ELm4294967295ELm7ELm2636928640ELm15ELm4022730752ELm18ELm1812433253EEEEiRT_RKNS0_10param_typeE W
_ZNSt24uniform_int_distributionImEclISt23mersenne_twister_engineImLm32ELm624ELm397ELm31ELm2567483615ELm11ELm4294967295ELm7ELm2636928640ELm15ELm4022730752ELm18ELm1812433253EEEEmRT_RKNS0_10param_typeE W
_ZNSt3mapINSt7__cxx1112basic_stringIcSt11char_traitsIcESaIcEEEmSt4lessIS5_ESaISt4pairIKS5_mEEEixEOS5_ W
_ZNSt4pairIKNSt7__cxx1112basic_stringIcSt11char_traitsIcESaIcEEESt13unordered_setIS5_St4hashIS5_ESt8equal_toIS5_ESaIS5_EEEC1ERS6_RKSD_ W
_ZNSt4pairIKNSt7__cxx1112basic_stringIcSt11char_traitsIcESaIcEEESt13unordered_setIS5_St4hashIS5_ESt8equal_toIS5_ESaIS5_EEED1Ev W
_ZNSt4pairIKNSt7__cxx1112basic_stringIcSt11char_traitsIcESaIcEEESt13unordered_setIS5_St4hashIS5_ESt8equal_toIS5_ESaIS5_EEED2Ev W
_ZNSt4pairIN2cl6DeviceENSt7__cxx1112basic_stringIcSt11char_traitsIcESaIcEEEED1Ev W
_ZNSt4pairIN2cl6DeviceENSt7__cxx1112basic_stringIcSt11char_traitsIcESaIcEEEED2Ev W
_ZNSt4pairINSt7__cxx1112basic_stringIcSt11char_traitsIcESaIcEEES5_ED1Ev W
_ZNSt4pairINSt7__cxx1112basic_stringIcSt11char_traitsIcESaIcEEES5_ED2Ev W
_ZNSt4pairINSt7__cxx1112basic_stringIcSt11char_traitsIcESaIcEEESt13unordered_mapIS5_S5_St4hashIS5_ESt8equal_toIS5_ESaIS_IKS5_S5_EEEED1Ev W
_ZNSt4pairINSt7__cxx1112basic_stringIcSt11char_traitsIcESaIcEEESt13unordered_mapIS5_S5_St4hashIS5_ESt8equal_toIS5_ESaIS_IKS5_S5_EEEED2Ev W
_ZNSt4pairINSt7__cxx1112basic_stringIcSt11char_traitsIcESaIcEEESt6vectorImSaImEEEC1IRA3_KcvEEOT_RKS8_ W
_ZNSt4pairINSt7__cxx1112basic_stringIcSt11char_traitsIcESaIcEEESt6vectorImSaImEEED1Ev W
_ZNSt4pairINSt7__cxx1112basic_stringIcSt11char_traitsIcESaIcEEESt6vectorImSaImEEED2Ev W
_ZNSt5dequeINSt7__cxx1112basic_stringIcSt11char_traitsIcESaIcEEESaIS5_EE16_M_push_back_auxIIRKS5_EEEvDpOT_ W
_ZNSt5dequeINSt7__cxx1112basic_stringIcSt11char_traitsIcESaIcEEESaIS5_EE16_M_push_back_auxIJRKS5_EEEvDpOT_ W
_ZNSt5dequeINSt7__cxx1112basic_stringIcSt11char_traitsIcESaIcEEESaIS5_EE19_M_destroy_data_auxESt15_Deque_iteratorIS5_RS5_PS5_ESB_ W
_ZNSt6vectorI5LayerSaIS0_EE19_M_emplace_back_auxIIS0_EEEvDpOT_ W
_ZNSt6vectorI5LayerSaIS0_EE19_M_emplace_back_auxIJS0_EEEvDpOT_ W
_ZNSt6vectorIcSaIcEEC1EmRKS0_ W
_ZNSt6vectorIcSaIcEEC2EmRKS0_ W
_ZNSt6vectorIfSaIfEE19_M_emplace_back_auxIIfEEEvDpOT_ W
_ZNSt6vectorIfSaIfEE19_M_emplace_back_auxIIRKfEEEvDpOT_ W
_ZNSt6vectorIfSaIfEE19_M_emplace_back_auxIJfEEEvDpOT_ W
_ZNSt6vectorIfSaIfEE19_M_emplace_back_auxIJRKfEEEvDpOT_ W
_ZNSt6vectorIiSaIiEE19_M_emplace_back_auxIIiEEEvDpOT_ W
_ZNSt6vectorIiSaIiEE19_M_emplace_back_auxIIRiEEEvDpOT_ W
_ZNSt6vectorIiSaIiEE19_M_emplace_back_auxIIRKiEEEvDpOT_ W
_ZNSt6vectorIiSaIiEE19_M_emplace_back_auxIJiEEEvDpOT_ W
_ZNSt6vectorIiSaIiEE19_M_emplace_back_auxIJRiEEEvDpOT_ W
_ZNSt6vectorIiSaIiEE19_M_emplace_back_auxIJRKiEEEvDpOT_ W
_ZNSt6vectorIjSaIjEE19_M_emplace_back_auxIIjEEEvDpOT_ W
_ZNSt6vectorIjSaIjEE19_M_emplace_back_auxIJjEEEvDpOT_ W
_ZNSt6vectorImSaImEE19_M_emplace_back_auxIIRKmEEEvDpOT_ W
_ZNSt6vectorImSaImEE19_M_emplace_back_auxIJRKmEEEvDpOT_ W
_ZNSt6vectorIN2cl6BufferESaIS1_EE19_M_emplace_back_auxIIRNS0_7ContextEiRmPvEEEvDpOT_ W
_ZNSt6vectorIN2cl6BufferESaIS1_EE19_M_emplace_back_auxIJRNS0_7ContextEiRmPvEEEvDpOT_ W
_ZNSt6vectorIN2cl6BufferESaIS1_EED1Ev W
_ZNSt6vectorIN2cl6BufferESaIS1_EED2Ev W
_ZNSt6vectorIN2cl6DeviceESaIS1_EE17_M_default_appendEm W
_ZNSt6vectorIN2cl6DeviceESaIS1_EED1Ev W
_ZNSt6vectorIN2cl6DeviceESaIS1_EED2Ev W
_ZNSt6vectorIN2cl8PlatformESaIS1_EE17_M_default_appendEm W
_ZNSt6vectorIN6lczero11BoardSquareESaIS1_EE19_M_emplace_back_auxIIRS1_EEEvDpOT_ W
_ZNSt6vectorIN6lczero11BoardSquareESaIS1_EE19_M_emplace_back_auxIJRS1_EEEvDpOT_ W
_ZNSt6vectorIN6lczero11EdgeAndNodeESaIS1_EE19_M_emplace_back_auxIIS1_EEEvDpOT_ W
_ZNSt6vectorIN6lczero11EdgeAndNodeESaIS1_EE19_M_emplace_back_auxIJS1_EEEvDpOT_ W
_ZNSt6vectorIN6lczero12SearchWorker13NodeToProcessESaIS2_EE19_M_emplace_back_auxIIS2_EEEvDpOT_ W
_ZNSt6vectorIN6lczero12SearchWorker13NodeToProcessESaIS2_EE19_M_emplace_back_auxIJS2_EEEvDpOT_ W
_ZNSt6vectorIN6lczero12ThinkingInfoESaIS1_EE19_M_emplace_back_auxIIRS1_EEEvDpOT_ W
_ZNSt6vectorIN6lczero12ThinkingInfoESaIS1_EE19_M_emplace_back_auxIJRS1_EEEvDpOT_ W
_ZNSt6vectorIN6lczero12ThinkingInfoESaIS1_EED1Ev W
_ZNSt6vectorIN6lczero12ThinkingInfoESaIS1_EED2Ev W
_ZNSt6vectorIN6lczero13LegacyWeights8ResidualESaIS2_EE19_M_emplace_back_auxIIRKN8pblczero16Weights_ResidualEEEEvDpOT_ W
_ZNSt6vectorIN6lczero13LegacyWeights8ResidualESaIS2_EE19_M_emplace_back_auxIJRKN8pblczero16Weights_ResidualEEEEvDpOT_ W
_ZNSt6vectorIN6lczero13LegacyWeights8ResidualESaIS2_EED1Ev W
_ZNSt6vectorIN6lczero13LegacyWeights8ResidualESaIS2_EED2Ev W
_ZNSt6vectorIN6lczero14NetworkFactory7FactoryESaIS2_EE19_M_emplace_back_auxIIRKNSt7__cxx1112basic_stringIcSt11char_traitsIcESaIcEEERSt8functionIFSt10unique_ptrINS0_7NetworkESt14default_deleteISG_EERKN8pblczero3NetERKNS0_11OptionsDictEEERiEEEvDpOT_ W
_ZNSt6vectorIN6lczero14NetworkFactory7FactoryESaIS2_EE19_M_emplace_back_auxIJRKNSt7__cxx1112basic_stringIcSt11char_traitsIcESaIcEEERSt8functionIFSt10unique_ptrINS0_7NetworkESt14default_deleteISG_EERKN8pblczero3NetERKNS0_11OptionsDictEEERiEEEvDpOT_ W
_ZNSt6vectorIN6lczero14V4TrainingDataESaIS1_EE19_M_emplace_back_auxIIS1_EEEvDpOT_ W
_ZNSt6vectorIN6lczero14V4TrainingDataESaIS1_EE19_M_emplace_back_auxIJS1_EEEvDpOT_ W
_ZNSt6vectorIN6lczero18CachingComputation8WorkItemESaIS2_EE19_M_emplace_back_auxIIEEEvDpOT_ W
_ZNSt6vectorIN6lczero18CachingComputation8WorkItemESaIS2_EE19_M_emplace_back_auxIJEEEvDpOT_ W
_ZNSt6vectorIN6lczero4MoveESaIS1_EE12emplace_backIIRNS0_11BoardSquareERKS5_RNS1_9PromotionEEEEvDpOT_ W
_ZNSt6vectorIN6lczero4MoveESaIS1_EE12emplace_backIJRNS0_11BoardSquareERKS5_RNS1_9PromotionEEEEvDpOT_ W
_ZNSt6vectorIN6lczero4MoveESaIS1_EE19_M_emplace_back_auxIIRKNSt7__cxx1112basic_stringIcSt11char_traitsIcESaIcEEEEEEvDpOT_ W
_ZNSt6vectorIN6lczero4MoveESaIS1_EE19_M_emplace_back_auxIIRKNSt7__cxx1112basic_stringIcSt11char_traitsIcESaIcEEERbEEEvDpOT_ W
_ZNSt6vectorIN6lczero4MoveESaIS1_EE19_M_emplace_back_auxIIRKS1_EEEvDpOT_ W
_ZNSt6vectorIN6lczero4MoveESaIS1_EE19_M_emplace_back_auxIIRNS0_11BoardSquareES5_EEEvDpOT_ W
_ZNSt6vectorIN6lczero4MoveESaIS1_EE19_M_emplace_back_auxIIS1_EEEvDpOT_ W
_ZNSt6vectorIN6lczero4MoveESaIS1_EE19_M_emplace_back_auxIJRKNSt7__cxx1112basic_stringIcSt11char_traitsIcESaIcEEEEEEvDpOT_ W
_ZNSt6vectorIN6lczero4MoveESaIS1_EE19_M_emplace_back_auxIJRKNSt7__cxx1112basic_stringIcSt11char_traitsIcESaIcEEERbEEEvDpOT_ W
_ZNSt6vectorIN6lczero4MoveESaIS1_EE19_M_emplace_back_auxIJRKS1_EEEvDpOT_ W
_ZNSt6vectorIN6lczero4MoveESaIS1_EE19_M_emplace_back_auxIJRNS0_11BoardSquareES5_EEEvDpOT_ W
_ZNSt6vectorIN6lczero4MoveESaIS1_EE19_M_emplace_back_auxIJS1_EEEvDpOT_ W
_ZNSt6vectorIN6lczero4MoveESaIS1_EEaSERKS3_ W
_ZNSt6vectorIN6lczero8PositionESaIS1_EE19_M_emplace_back_auxIIRKNS0_10ChessBoardERiS8_EEEvDpOT_ W
_ZNSt6vectorIN6lczero8PositionESaIS1_EE19_M_emplace_back_auxIIS1_EEEvDpOT_ W
_ZNSt6vectorIN6lczero8PositionESaIS1_EE19_M_emplace_back_auxIJRKNS0_10ChessBoardERiS8_EEEvDpOT_ W
_ZNSt6vectorIN6lczero8PositionESaIS1_EE19_M_emplace_back_auxIJS1_EEEvDpOT_ W
_ZNSt6vectorINSt7__cxx1112basic_stringIcSt11char_traitsIcESaIcEEESaIS5_EE19_M_emplace_back_auxIIEEEvDpOT_ W
_ZNSt6vectorINSt7__cxx1112basic_stringIcSt11char_traitsIcESaIcEEESaIS5_EE19_M_emplace_back_auxIIRKS5_EEEvDpOT_ W
_ZNSt6vectorINSt7__cxx1112basic_stringIcSt11char_traitsIcESaIcEEESaIS5_EE19_M_emplace_back_auxIIRS5_EEEvDpOT_ W
_ZNSt6vectorINSt7__cxx1112basic_stringIcSt11char_traitsIcESaIcEEESaIS5_EE19_M_emplace_back_auxIIS5_EEEvDpOT_ W
_ZNSt6vectorINSt7__cxx1112basic_stringIcSt11char_traitsIcESaIcEEESaIS5_EE19_M_emplace_back_auxIJEEEvDpOT_ W
_ZNSt6vectorINSt7__cxx1112basic_stringIcSt11char_traitsIcESaIcEEESaIS5_EE19_M_emplace_back_auxIJRKS5_EEEvDpOT_ W
_ZNSt6vectorINSt7__cxx1112basic_stringIcSt11char_traitsIcESaIcEEESaIS5_EE19_M_emplace_back_auxIJRS5_EEEvDpOT_ W
_ZNSt6vectorINSt7__cxx1112basic_stringIcSt11char_traitsIcESaIcEEESaIS5_EE19_M_emplace_back_auxIJS5_EEEvDpOT_ W
_ZNSt6vectorINSt7__cxx1112basic_stringIcSt11char_traitsIcESaIcEEESaIS5_EEaSERKS7_ W
_ZNSt6vectorINSt7__cxx1112basic_stringIcSt11char_traitsIcESaIcEEESaIS5_EED1Ev W
_ZNSt6vectorINSt7__cxx1112basic_stringIcSt11char_traitsIcESaIcEEESaIS5_EED2Ev W
_ZNSt6vectorIS_IfSaIfEESaIS1_EE19_M_emplace_back_auxIIS1_EEEvDpOT_ W
_ZNSt6vectorIS_IfSaIfEESaIS1_EE19_M_emplace_back_auxIJS1_EEEvDpOT_ W
_ZNSt6vectorIS_IN6lczero10InputPlaneESaIS1_EESaIS3_EE19_M_emplace_back_auxIIRS3_EEEvDpOT_ W
_ZNSt6vectorIS_IN6lczero10InputPlaneESaIS1_EESaIS3_EE19_M_emplace_back_auxIJRS3_EEEvDpOT_ W
_ZNSt6vectorIsSaIsEE19_M_emplace_back_auxIIRKsEEEvDpOT_ W
_ZNSt6vectorIsSaIsEE19_M_emplace_back_auxIJRKsEEEvDpOT_ W
_ZNSt6vectorISt10unique_ptrI13OpenCLBuffersSt14default_deleteIS1_EESaIS4_EE19_M_emplace_back_auxIIS4_EEEvDpOT_ W
_ZNSt6vectorISt10unique_ptrI13OpenCLBuffersSt14default_deleteIS1_EESaIS4_EE19_M_emplace_back_auxIJS4_EEEvDpOT_ W
_ZNSt6vectorISt10unique_ptrI13OpenCLBuffersSt14default_deleteIS1_EESaIS4_EED1Ev W
_ZNSt6vectorISt10unique_ptrI13OpenCLBuffersSt14default_deleteIS1_EESaIS4_EED2Ev W
_ZNSt6vectorISt10unique_ptrIN6lczero13OptionsParser6OptionESt14default_deleteIS3_EESaIS6_EE19_M_emplace_back_auxIIS0_INS1_10BoolOptionES4_ISA_EEEEEvDpOT_ W
_ZNSt6vectorISt10unique_ptrIN6lczero13OptionsParser6OptionESt14default_deleteIS3_EESaIS6_EE19_M_emplace_back_auxIIS0_INS1_11FloatOptionES4_ISA_EEEEEvDpOT_ W
_ZNSt6vectorISt10unique_ptrIN6lczero13OptionsParser6OptionESt14default_deleteIS3_EESaIS6_EE19_M_emplace_back_auxIIS0_INS1_12ChoiceOptionES4_ISA_EEEEEvDpOT_ W
_ZNSt6vectorISt10unique_ptrIN6lczero13OptionsParser6OptionESt14default_deleteIS3_EESaIS6_EE19_M_emplace_back_auxIIS0_INS1_12StringOptionES4_ISA_EEEEEvDpOT_ W
_ZNSt6vectorISt10unique_ptrIN6lczero13OptionsParser6OptionESt14default_deleteIS3_EESaIS6_EE19_M_emplace_back_auxIIS0_INS1_9IntOptionES4_ISA_EEEEEvDpOT_ W
_ZNSt6vectorISt10unique_ptrIN6lczero13OptionsParser6OptionESt14default_deleteIS3_EESaIS6_EE19_M_emplace_back_auxIJS0_INS1_10BoolOptionES4_ISA_EEEEEvDpOT_ W
_ZNSt6vectorISt10unique_ptrIN6lczero13OptionsParser6OptionESt14default_deleteIS3_EESaIS6_EE19_M_emplace_back_auxIJS0_INS1_11FloatOptionES4_ISA_EEEEEvDpOT_ W
_ZNSt6vectorISt10unique_ptrIN6lczero13OptionsParser6OptionESt14default_deleteIS3_EESaIS6_EE19_M_emplace_back_auxIJS0_INS1_12ChoiceOptionES4_ISA_EEEEEvDpOT_ W
_ZNSt6vectorISt10unique_ptrIN6lczero13OptionsParser6OptionESt14default_deleteIS3_EESaIS6_EE19_M_emplace_back_auxIJS0_INS1_12StringOptionES4_ISA_EEEEEvDpOT_ W
_ZNSt6vectorISt10unique_ptrIN6lczero13OptionsParser6OptionESt14default_deleteIS3_EESaIS6_EE19_M_emplace_back_auxIJS0_INS1_9IntOptionES4_ISA_EEEEEvDpOT_ W
_ZNSt6vectorISt10unique_ptrIN6lczero18NetworkComputationESt14default_deleteIS2_EESaIS5_EE19_M_emplace_back_auxIIS5_EEEvDpOT_ W
_ZNSt6vectorISt10unique_ptrIN6lczero18NetworkComputationESt14default_deleteIS2_EESaIS5_EE19_M_emplace_back_auxIJS5_EEEvDpOT_ W
_ZNSt6vectorISt10unique_ptrIN6lczero4NodeESt14default_deleteIS2_EESaIS5_EE19_M_emplace_back_auxIIS5_EEEvDpOT_ W
_ZNSt6vectorISt10unique_ptrIN6lczero4NodeESt14default_deleteIS2_EESaIS5_EE19_M_emplace_back_auxIJS5_EEEvDpOT_ W
_ZNSt6vectorISt10unique_ptrIN6lczero4NodeESt14default_deleteIS2_EESaIS5_EED1Ev W
_ZNSt6vectorISt10unique_ptrIN6lczero4NodeESt14default_deleteIS2_EESaIS5_EED2Ev W
_ZNSt6vectorISt10unique_ptrIN6lczero7NetworkESt14default_deleteIS2_EESaIS5_EE19_M_emplace_back_auxIIS5_EEEvDpOT_ W
_ZNSt6vectorISt10unique_ptrIN6lczero7NetworkESt14default_deleteIS2_EESaIS5_EE19_M_emplace_back_auxIJS5_EEEvDpOT_ W
_ZNSt6vectorISt10unique_ptrIN6lczero7NetworkESt14default_deleteIS2_EESaIS5_EED1Ev W
_ZNSt6vectorISt10unique_ptrIN6lczero7NetworkESt14default_deleteIS2_EESaIS5_EED2Ev W
_ZNSt6vectorISt4pairIfN6lczero11EdgeAndNodeEESaIS3_EE19_M_emplace_back_auxIIfRNS1_13Edge_IteratorILb0EEEEEEvDpOT_ W
_ZNSt6vectorISt4pairIfN6lczero11EdgeAndNodeEESaIS3_EE19_M_emplace_back_auxIJfRNS1_13Edge_IteratorILb0EEEEEEvDpOT_ W
_ZNSt6vectorISt4pairIlNSt7__cxx1112basic_stringIcSt11char_traitsIcESaIcEEEESaIS7_EE19_M_emplace_back_auxIIlRKS6_EEEvDpOT_ W
_ZNSt6vectorISt4pairIlNSt7__cxx1112basic_stringIcSt11char_traitsIcESaIcEEEESaIS7_EE19_M_emplace_back_auxIJlRKS6_EEEvDpOT_ W
_ZNSt6vectorISt4pairIN2cl6DeviceENSt7__cxx1112basic_stringIcSt11char_traitsIcESaIcEEEESaIS9_EE19_M_emplace_back_auxIIS9_EEEvDpOT_ W
_ZNSt6vectorISt4pairIN2cl6DeviceENSt7__cxx1112basic_stringIcSt11char_traitsIcESaIcEEEESaIS9_EE19_M_emplace_back_auxIJS9_EEEvDpOT_ W
_ZNSt6vectorISt4pairIN2cl6DeviceENSt7__cxx1112basic_stringIcSt11char_traitsIcESaIcEEEESaIS9_EED1Ev W
_ZNSt6vectorISt4pairIN2cl6DeviceENSt7__cxx1112basic_stringIcSt11char_traitsIcESaIcEEEESaIS9_EED2Ev W
_ZNSt6vectorISt4pairINSt7__cxx1112basic_stringIcSt11char_traitsIcESaIcEEES6_ESaIS7_EE19_M_emplace_back_auxIIRKS6_SC_EEEvDpOT_ W
_ZNSt6vectorISt4pairINSt7__cxx1112basic_stringIcSt11char_traitsIcESaIcEEES6_ESaIS7_EE19_M_emplace_back_auxIJRKS6_SC_EEEvDpOT_ W
_ZNSt6vectorISt4pairINSt7__cxx1112basic_stringIcSt11char_traitsIcESaIcEEES6_ESaIS7_EED1Ev W
_ZNSt6vectorISt4pairINSt7__cxx1112basic_stringIcSt11char_traitsIcESaIcEEES6_ESaIS7_EED2Ev W
_ZNSt6vectorISt4pairINSt7__cxx1112basic_stringIcSt11char_traitsIcESaIcEEES_ImSaImEEESaIS9_EE13_M_assign_auxIPKS9_EEvT_SF_St20forward_iterator_tag W
_ZNSt6vectorISt4pairINSt7__cxx1112basic_stringIcSt11char_traitsIcESaIcEEES_ImSaImEEESaIS9_EED1Ev W
_ZNSt6vectorISt4pairINSt7__cxx1112basic_stringIcSt11char_traitsIcESaIcEEES_ImSaImEEESaIS9_EED2Ev W
_ZNSt6vectorISt5tupleIImffN6lczero11EdgeAndNodeEEESaIS3_EE19_M_emplace_back_auxIIjffRNS1_13Edge_IteratorILb0EEEEEEvDpOT_ W
_ZNSt6vectorISt5tupleIJmffN6lczero11EdgeAndNodeEEESaIS3_EE19_M_emplace_back_auxIJjffRNS1_13Edge_IteratorILb0EEEEEEvDpOT_ W
_ZNSt6vectorItSaItEE19_M_emplace_back_auxIItEEEvDpOT_ W
_ZNSt6vectorItSaItEE19_M_emplace_back_auxIJtEEEvDpOT_ W
_ZNSt6vectorItSaItEE7reserveEm W
_ZNSt6vectorItSaItEED1Ev W
_ZNSt6vectorItSaItEED2Ev W
_ZNSt7__cxx1110_List_baseISt10unique_ptrIN6lczero12SelfPlayGameESt14default_deleteIS3_EESaIS6_EE8_M_clearEv W
_ZNSt7__cxx1112basic_stringIcSt11char_traitsIcESaIcEE6assignIN9__gnu_cxx17__normal_iteratorIPcSt6vectorIcS3_EEEvEERS4_T_SD_ W
_ZNSt7__cxx1115basic_stringbufIcSt11char_traitsIcESaIcEED0Ev W
_ZNSt7__cxx1115basic_stringbufIcSt11char_traitsIcESaIcEED1Ev W
_ZNSt7__cxx1115basic_stringbufIcSt11char_traitsIcESaIcEED2Ev W
_ZNSt8__detail16_Hashtable_allocISaINS_10_Hash_nodeISt4pairIKNSt7__cxx1112basic_stringIcSt11char_traitsIcESaIcEEEbELb1EEEEE16_M_allocate_nodeIIRKSA_EEEPSB_DpOT_ W
_ZNSt8__detail16_Hashtable_allocISaINS_10_Hash_nodeISt4pairIKNSt7__cxx1112basic_stringIcSt11char_traitsIcESaIcEEEbELb1EEEEE16_M_allocate_nodeIJRKSA_EEEPSB_DpOT_ W
_ZNSt8__detail16_Hashtable_allocISaINS_10_Hash_nodeISt4pairIKNSt7__cxx1112basic_stringIcSt11char_traitsIcESaIcEEEfELb1EEEEE16_M_allocate_nodeIIRKSA_EEEPSB_DpOT_ W
_ZNSt8__detail16_Hashtable_allocISaINS_10_Hash_nodeISt4pairIKNSt7__cxx1112basic_stringIcSt11char_traitsIcESaIcEEEfELb1EEEEE16_M_allocate_nodeIJRKSA_EEEPSB_DpOT_ W
_ZNSt8__detail16_Hashtable_allocISaINS_10_Hash_nodeISt4pairIKNSt7__cxx1112basic_stringIcSt11char_traitsIcESaIcEEEiELb1EEEEE16_M_allocate_nodeIIRKSA_EEEPSB_DpOT_ W
_ZNSt8__detail16_Hashtable_allocISaINS_10_Hash_nodeISt4pairIKNSt7__cxx1112basic_stringIcSt11char_traitsIcESaIcEEEiELb1EEEEE16_M_allocate_nodeIJRKSA_EEEPSB_DpOT_ W
_ZNSt8__detail16_Hashtable_allocISaINS_10_Hash_nodeISt4pairIKNSt7__cxx1112basic_stringIcSt11char_traitsIcESaIcEEES8_ELb1EEEEE16_M_allocate_nodeIIRKSA_EEEPSB_DpOT_ W
_ZNSt8__detail16_Hashtable_allocISaINS_10_Hash_nodeISt4pairIKNSt7__cxx1112basic_stringIcSt11char_traitsIcESaIcEEES8_ELb1EEEEE16_M_allocate_nodeIJRKSA_EEEPSB_DpOT_ W
_ZNSt8__detail16_Hashtable_allocISaINS_10_Hash_nodeISt4pairIKNSt7__cxx1112basic_stringIcSt11char_traitsIcESaIcEEESt13unordered_setIS8_St4hashIS8_ESt8equal_toIS8_ESaIS8_EEELb1EEEEE16_M_allocate_nodeIIRKSH_EEEPSI_DpOT_ W
_ZNSt8__detail16_Hashtable_allocISaINS_10_Hash_nodeISt4pairIKNSt7__cxx1112basic_stringIcSt11char_traitsIcESaIcEEESt13unordered_setIS8_St4hashIS8_ESt8equal_toIS8_ESaIS8_EEELb1EEEEE16_M_allocate_nodeIJRKSH_EEEPSI_DpOT_ W
_ZNSt8__detail9_Map_baseINSt7__cxx1112basic_stringIcSt11char_traitsIcESaIcEEESt4pairIKS6_bESaIS9_ENS_10_Select1stESt8equal_toIS6_ESt4hashIS6_ENS_18_Mod_range_hashingENS_20_Default_ranged_hashENS_20_Prime_rehash_policyENS_17_Hashtable_traitsILb1ELb0ELb1EEELb1EEixERS8_ W
_ZNSt8__detail9_Map_baseINSt7__cxx1112basic_stringIcSt11char_traitsIcESaIcEEESt4pairIKS6_fESaIS9_ENS_10_Select1stESt8equal_toIS6_ESt4hashIS6_ENS_18_Mod_range_hashingENS_20_Default_ranged_hashENS_20_Prime_rehash_policyENS_17_Hashtable_traitsILb1ELb0ELb1EEELb1EEixERS8_ W
_ZNSt8__detail9_Map_baseINSt7__cxx1112basic_stringIcSt11char_traitsIcESaIcEEESt4pairIKS6_iESaIS9_ENS_10_Select1stESt8equal_toIS6_ESt4hashIS6_ENS_18_Mod_range_hashingENS_20_Default_ranged_hashENS_20_Prime_rehash_policyENS_17_Hashtable_traitsILb1ELb0ELb1EEELb1EEixERS8_ W
_ZNSt8__detail9_Map_baseINSt7__cxx1112basic_stringIcSt11char_traitsIcESaIcEEESt4pairIKS6_S6_ESaIS9_ENS_10_Select1stESt8equal_toIS6_ESt4hashIS6_ENS_18_Mod_range_hashingENS_20_Default_ranged_hashENS_20_Prime_rehash_policyENS_17_Hashtable_traitsILb1ELb0ELb1EEELb1EEixERS8_ W
_ZNSt8_Rb_treeINSt7__cxx1112basic_stringIcSt11char_traitsIcESaIcEEESt4pairIKS5_mESt10_Select1stIS8_ESt4lessIS5_ESaIS8_EE22_M_emplace_hint_uniqueIIRKSt21piecewise_construct_tSt5tupleIIOS5_EESJ_IIEEEEESt17_Rb_tree_iteratorIS8_ESt23_Rb_tree_const_iteratorIS8_EDpOT_ W
_ZNSt8_Rb_treeINSt7__cxx1112basic_stringIcSt11char_traitsIcESaIcEEESt4pairIKS5_mESt10_Select1stIS8_ESt4lessIS5_ESaIS8_EE22_M_emplace_hint_uniqueIIRKSt21piecewise_construct_tSt5tupleIIRS7_EESJ_IIEEEEESt17_Rb_tree_iteratorIS8_ESt23_Rb_tree_const_iteratorIS8_EDpOT_ W
_ZNSt8_Rb_treeINSt7__cxx1112basic_stringIcSt11char_traitsIcESaIcEEESt4pairIKS5_mESt10_Select1stIS8_ESt4lessIS5_ESaIS8_EE22_M_emplace_hint_uniqueIJRKSt21piecewise_construct_tSt5tupleIJOS5_EESJ_IJEEEEESt17_Rb_tree_iteratorIS8_ESt23_Rb_tree_const_iteratorIS8_EDpOT_ W
_ZNSt8_Rb_treeINSt7__cxx1112basic_stringIcSt11char_traitsIcESaIcEEESt4pairIKS5_mESt10_Select1stIS8_ESt4lessIS5_ESaIS8_EE22_M_emplace_hint_uniqueIJRKSt21piecewise_construct_tSt5tupleIJRS7_EESJ_IJEEEEESt17_Rb_tree_iteratorIS8_ESt23_Rb_tree_const_iteratorIS8_EDpOT_ W
_ZNSt8_Rb_treeINSt7__cxx1112basic_stringIcSt11char_traitsIcESaIcEEESt4pairIKS5_mESt10_Select1stIS8_ESt4lessIS5_ESaIS8_EE24_M_get_insert_unique_posERS7_ W
_ZNSt8_Rb_treeINSt7__cxx1112basic_stringIcSt11char_traitsIcESaIcEEESt4pairIKS5_mESt10_Select1stIS8_ESt4lessIS5_ESaIS8_EE7_M_copyINSE_11_Alloc_nodeEEEPSt13_Rb_tree_nodeIS8_EPKSI_SJ_RT_ W
_ZNSt8_Rb_treeINSt7__cxx1112basic_stringIcSt11char_traitsIcESaIcEEESt4pairIKS5_mESt10_Select1stIS8_ESt4lessIS5_ESaIS8_EE8_M_eraseEPSt13_Rb_tree_nodeIS8_E W
_ZNSt8_Rb_treeINSt7__cxx1112basic_stringIcSt11char_traitsIcESaIcEEESt4pairIKS5_N6lczero11OptionsDictEESt10_Select1stISA_ESt4lessIS5_ESaISA_EE17_M_emplace_uniqueIIRS7_PS9_EEES6_ISt17_Rb_tree_iteratorISA_EbEDpOT_ W
_ZNSt8_Rb_treeINSt7__cxx1112basic_stringIcSt11char_traitsIcESaIcEEESt4pairIKS5_N6lczero11OptionsDictEESt10_Select1stISA_ESt4lessIS5_ESaISA_EE17_M_emplace_uniqueIJRS7_PS9_EEES6_ISt17_Rb_tree_iteratorISA_EbEDpOT_ W
_ZNSt8_Rb_treeINSt7__cxx1112basic_stringIcSt11char_traitsIcESaIcEEESt4pairIKS5_N6lczero11OptionsDictEESt10_Select1stISA_ESt4lessIS5_ESaISA_EE7_M_copyINSG_11_Alloc_nodeEEEPSt13_Rb_tree_nodeISA_EPKSK_SL_RT_ W
_ZNSt8_Rb_treeINSt7__cxx1112basic_stringIcSt11char_traitsIcESaIcEEESt4pairIKS5_N6lczero11OptionsDictEESt10_Select1stISA_ESt4lessIS5_ESaISA_EE7_M_copyINSG_20_Reuse_or_alloc_nodeEEEPSt13_Rb_tree_nodeISA_EPKSK_SL_RT_ W
_ZNSt8_Rb_treeINSt7__cxx1112basic_stringIcSt11char_traitsIcESaIcEEESt4pairIKS5_N6lczero11OptionsDictEESt10_Select1stISA_ESt4lessIS5_ESaISA_EE8_M_eraseEPSt13_Rb_tree_nodeISA_E W
_ZSt11__make_heapISt16reverse_iteratorIN9__gnu_cxx17__normal_iteratorIPSt4pairIlNSt7__cxx1112basic_stringIcSt11char_traitsIcESaIcEEEESt6vectorISA_SaISA_EEEEENS1_5__ops15_Iter_less_iterEEvT_SJ_T0_ W
_ZSt13__adjust_heapIN9__gnu_cxx17__normal_iteratorIPN6lczero14NetworkFactory7FactoryESt6vectorIS4_SaIS4_EEEElS4_NS0_5__ops15_Iter_less_iterEEvT_T0_SD_T1_T2_ W
_ZSt13__adjust_heapIN9__gnu_cxx17__normal_iteratorIPSt5tupleIImffN6lczero11EdgeAndNodeEEESt6vectorIS5_SaIS5_EEEElS5_NS0_5__ops15_Iter_comp_iterISt7greaterIS5_EEEEvT_T0_SH_T1_T2_ W
_ZSt13__adjust_heapIN9__gnu_cxx17__normal_iteratorIPSt5tupleIJmffN6lczero11EdgeAndNodeEEESt6vectorIS5_SaIS5_EEEElS5_NS0_5__ops15_Iter_comp_iterISt7greaterIS5_EEEEvT_T0_SH_T1_T2_ W
_ZSt13__adjust_heapISt16reverse_iteratorIN9__gnu_cxx17__normal_iteratorIPSt4pairIlNSt7__cxx1112basic_stringIcSt11char_traitsIcESaIcEEEESt6vectorISA_SaISA_EEEEElSA_NS1_5__ops15_Iter_less_iterEEvT_T0_SK_T1_T2_ W
_ZSt16__insertion_sortIN9__gnu_cxx17__normal_iteratorIPN6lczero14NetworkFactory7FactoryESt6vectorIS4_SaIS4_EEEENS0_5__ops15_Iter_less_iterEEvT_SC_T0_ W
_ZSt16__insertion_sortISt16reverse_iteratorIN9__gnu_cxx17__normal_iteratorIPSt4pairIlNSt7__cxx1112basic_stringIcSt11char_traitsIcESaIcEEEESt6vectorISA_SaISA_EEEEENS1_5__ops15_Iter_less_iterEEvT_SJ_T0_ W
_ZSt16__once_call_implISt12_Bind_simpleIFPFvvEvEEEvv W
_ZSt22__move_median_to_firstISt16reverse_iteratorIN9__gnu_cxx17__normal_iteratorIPSt4pairIlNSt7__cxx1112basic_stringIcSt11char_traitsIcESaIcEEEESt6vectorISA_SaISA_EEEEENS1_5__ops15_Iter_less_iterEEvT_SJ_SJ_SJ_T0_ W
_ZSt25__unguarded_linear_insertISt16reverse_iteratorIN9__gnu_cxx17__normal_iteratorIPSt4pairIlNSt7__cxx1112basic_stringIcSt11char_traitsIcESaIcEEEESt6vectorISA_SaISA_EEEEENS1_5__ops14_Val_less_iterEEvT_T0_ W
_ZSt9__find_ifIN9__gnu_cxx17__normal_iteratorIPN6lczero4MoveESt6vectorIS3_SaIS3_EEEENS0_5__ops16_Iter_equals_valIKS3_EEET_SD_SD_T0_St26random_access_iterator_tag W
_ZStlsIcSt11char_traitsIcEERSt13basic_ostreamIT_T0_ES6_St9_Put_timeIS3_E W
_ZStplIcSt11char_traitsIcESaIcEENSt7__cxx1112basic_stringIT_T0_T1_EEOS8_PKS5_ W
_ZStplIcSt11char_traitsIcESaIcEENSt7__cxx1112basic_stringIT_T0_T1_EEOS8_RKS8_ W
_ZStplIcSt11char_traitsIcESaIcEENSt7__cxx1112basic_stringIT_T0_T1_EEPKS5_OS8_ W
_ZStplIcSt11char_traitsIcESaIcEENSt7__cxx1112basic_stringIT_T0_T1_EEPKS5_RKS8_ W
_ZTIN2cl10BuildErrorE V
_ZTIN2cl5ErrorE V
_ZTIN6google8protobuf8internal29InternalMetadataWithArenaBaseINS0_15UnknownFieldSetENS1_25InternalMetadataWithArenaEE9ContainerE V
_ZTIN6lczero10BoolOptionE V
_ZTIN6lczero10EngineLoopE V
_ZTIN6lczero10LogMessageE V
_ZTIN6lczero11FloatOptionE V
_ZTIN6lczero12ChoiceOptionE V
_ZTIN6lczero12SelfPlayLoopE V
_ZTIN6lczero12StringOptionE V
_ZTIN6lczero13OptionsParser6OptionE V
_ZTIN6lczero15SyzygyTablebaseE V
_ZTIN6lczero16StderrLogMessageE V
_ZTIN6lczero18NetworkComputationE V
_ZTIN6lczero27SingleThreadBatchingNetworkE V
_ZTIN6lczero38SingleThreadBatchingNetworkComputationE V
_ZTIN6lczero7NetworkE V
_ZTIN6lczero7UciLoopE V
_ZTIN6lczero9ExceptionE V
_ZTIN6lczero9IntOptionE V
_ZTIN8pblczero13EngineVersionE V
_ZTIN8pblczero13NetworkFormatE V
_ZTIN8pblczero13Weights_LayerE V
_ZTIN8pblczero14TrainingParamsE V
_ZTIN8pblczero14Weights_SEunitE V
_ZTIN8pblczero16Weights_ResidualE V
_ZTIN8pblczero17Weights_ConvBlockE V
_ZTIN8pblczero3NetE V
_ZTIN8pblczero6FormatE V
_ZTIN8pblczero7WeightsE V
_ZTINSt6thread10_Impl_baseE V
_ZTISt11_Mutex_baseILN9__gnu_cxx12_Lock_policyE2EE V
_ZTISt16_Sp_counted_baseILN9__gnu_cxx12_Lock_policyE2EE V
_ZTISt17_Weak_result_typeISt7_Mem_fnIMN6lczero12SelfPlayLoopEFvRKNS1_14TournamentInfoEEEE V
_ZTISt17_Weak_result_typeISt7_Mem_fnIMN6lczero12SelfPlayLoopEFvRKNS1_8GameInfoEEEE V
_ZTISt17_Weak_result_typeISt7_Mem_fnIMN6lczero7UciLoopEFvRKNS1_12BestMoveInfoEEEE V
_ZTISt17_Weak_result_typeISt7_Mem_fnIMN6lczero7UciLoopEFvRKSt6vectorINS1_12ThinkingInfoESaIS4_EEEEE V
_ZTISt17_Weak_result_typeISt7_Mem_fnIMN6lczero9BenchmarkEFvRKNS1_12BestMoveInfoEEEE V
_ZTISt17_Weak_result_typeISt7_Mem_fnIMN6lczero9BenchmarkEFvRKSt6vectorINS1_12ThinkingInfoESaIS4_EEEEE V
_ZTISt19_Sp_counted_deleterIPN6lczero18NetworkComputationESt14default_deleteIS1_ESaIvELN9__gnu_cxx12_Lock_policyE2EE V
_ZTISt19_Sp_counted_deleterIPN6lczero7NetworkESt14default_deleteIS1_ESaIvELN9__gnu_cxx12_Lock_policyE2EE V
_ZTISt19_Sp_make_shared_tag V
_ZTISt22_Maybe_get_result_typeISt7_Mem_fnIMN6lczero12SelfPlayLoopEFvRKNS1_14TournamentInfoEEEvE V
_ZTISt22_Maybe_get_result_typeISt7_Mem_fnIMN6lczero12SelfPlayLoopEFvRKNS1_8GameInfoEEEvE V
_ZTISt22_Maybe_get_result_typeISt7_Mem_fnIMN6lczero7UciLoopEFvRKNS1_12BestMoveInfoEEEvE V
_ZTISt22_Maybe_get_result_typeISt7_Mem_fnIMN6lczero7UciLoopEFvRKSt6vectorINS1_12ThinkingInfoESaIS4_EEEEvE V
_ZTISt22_Maybe_get_result_typeISt7_Mem_fnIMN6lczero9BenchmarkEFvRKNS1_12BestMoveInfoEEEvE V
_ZTISt22_Maybe_get_result_typeISt7_Mem_fnIMN6lczero9BenchmarkEFvRKSt6vectorINS1_12ThinkingInfoESaIS4_EEEEvE V
_ZTISt22_Weak_result_type_implISt7_Mem_fnIMN6lczero12SelfPlayLoopEFvRKNS1_14TournamentInfoEEEE V
_ZTISt22_Weak_result_type_implISt7_Mem_fnIMN6lczero12SelfPlayLoopEFvRKNS1_8GameInfoEEEE V
_ZTISt22_Weak_result_type_implISt7_Mem_fnIMN6lczero7UciLoopEFvRKNS1_12BestMoveInfoEEEE V
_ZTISt22_Weak_result_type_implISt7_Mem_fnIMN6lczero7UciLoopEFvRKSt6vectorINS1_12ThinkingInfoESaIS4_EEEEE V
_ZTISt22_Weak_result_type_implISt7_Mem_fnIMN6lczero9BenchmarkEFvRKNS1_12BestMoveInfoEEEE V
_ZTISt22_Weak_result_type_implISt7_Mem_fnIMN6lczero9BenchmarkEFvRKSt6vectorINS1_12ThinkingInfoESaIS4_EEEEE V
_ZTISt23_Sp_counted_ptr_inplaceIN6lczero8LruCacheImNS0_15CachedNNRequestEEESaIS3_ELN9__gnu_cxx12_Lock_policyE2EE V
_ZTISt23_Sp_counted_ptr_inplaceIN6lczero8NodeTreeESaIS1_ELN9__gnu_cxx12_Lock_policyE2EE V
_ZTISt5_BindIFSt7_Mem_fnIMN6lczero12SelfPlayLoopEFvRKNS1_14TournamentInfoEEEPS2_St12_PlaceholderILi1EEEE V
_ZTISt5_BindIFSt7_Mem_fnIMN6lczero12SelfPlayLoopEFvRKNS1_8GameInfoEEEPS2_St12_PlaceholderILi1EEEE V
_ZTISt5_BindIFSt7_Mem_fnIMN6lczero7UciLoopEFvRKNS1_12BestMoveInfoEEEPNS1_10EngineLoopESt12_PlaceholderILi1EEEE V
_ZTISt5_BindIFSt7_Mem_fnIMN6lczero7UciLoopEFvRKNS1_12BestMoveInfoEEEPNS1_12SelfPlayLoopESt12_PlaceholderILi1EEEE V
_ZTISt5_BindIFSt7_Mem_fnIMN6lczero7UciLoopEFvRKSt6vectorINS1_12ThinkingInfoESaIS4_EEEEPNS1_10EngineLoopESt12_PlaceholderILi1EEEE V
_ZTISt5_BindIFSt7_Mem_fnIMN6lczero7UciLoopEFvRKSt6vectorINS1_12ThinkingInfoESaIS4_EEEEPNS1_12SelfPlayLoopESt12_PlaceholderILi1EEEE V
_ZTISt5_BindIFSt7_Mem_fnIMN6lczero9BenchmarkEFvRKNS1_12BestMoveInfoEEEPS2_St12_PlaceholderILi1EEEE V
_ZTISt5_BindIFSt7_Mem_fnIMN6lczero9BenchmarkEFvRKSt6vectorINS1_12ThinkingInfoESaIS4_EEEEPS2_St12_PlaceholderILi1EEEE V
_ZTSN2cl10BuildErrorE V
_ZTSN2cl5ErrorE V
_ZTSN6google8protobuf8internal29InternalMetadataWithArenaBaseINS0_15UnknownFieldSetENS1_25InternalMetadataWithArenaEE9ContainerE V
_ZTSN6lczero10BoolOptionE V
_ZTSN6lczero10EngineLoopE V
_ZTSN6lczero10LogMessageE V
_ZTSN6lczero11FloatOptionE V
_ZTSN6lczero12ChoiceOptionE V
_ZTSN6lczero12SelfPlayLoopE V
_ZTSN6lczero12StringOptionE V
_ZTSN6lczero13OptionsParser6OptionE V
_ZTSN6lczero15SyzygyTablebaseE V
_ZTSN6lczero16StderrLogMessageE V
_ZTSN6lczero18NetworkComputationE V
_ZTSN6lczero27SingleThreadBatchingNetworkE V
_ZTSN6lczero38SingleThreadBatchingNetworkComputationE V
_ZTSN6lczero7NetworkE V
_ZTSN6lczero7UciLoopE V
_ZTSN6lczero9ExceptionE V
_ZTSN6lczero9IntOptionE V
_ZTSN8pblczero13EngineVersionE V
_ZTSN8pblczero13NetworkFormatE V
_ZTSN8pblczero13Weights_LayerE V
_ZTSN8pblczero14TrainingParamsE V
_ZTSN8pblczero14Weights_SEunitE V
_ZTSN8pblczero16Weights_ResidualE V
_ZTSN8pblczero17Weights_ConvBlockE V
_ZTSN8pblczero3NetE V
_ZTSN8pblczero6FormatE V
_ZTSN8pblczero7WeightsE V
_ZTSNSt6thread10_Impl_baseE V
_ZTSSt11_Mutex_baseILN9__gnu_cxx12_Lock_policyE2EE V
_ZTSSt14default_deleteIN6lczero18NetworkComputationEE V
_ZTSSt14default_deleteIN6lczero7NetworkEE V
_ZTSSt16_Sp_counted_baseILN9__gnu_cxx12_Lock_policyE2EE V
_ZTSSt17_Weak_result_typeISt7_Mem_fnIMN6lczero12SelfPlayLoopEFvRKNS1_14TournamentInfoEEEE V
_ZTSSt17_Weak_result_typeISt7_Mem_fnIMN6lczero12SelfPlayLoopEFvRKNS1_8GameInfoEEEE V
_ZTSSt17_Weak_result_typeISt7_Mem_fnIMN6lczero7UciLoopEFvRKNS1_12BestMoveInfoEEEE V
_ZTSSt17_Weak_result_typeISt7_Mem_fnIMN6lczero7UciLoopEFvRKSt6vectorINS1_12ThinkingInfoESaIS4_EEEEE V
_ZTSSt17_Weak_result_typeISt7_Mem_fnIMN6lczero9BenchmarkEFvRKNS1_12BestMoveInfoEEEE V
_ZTSSt17_Weak_result_typeISt7_Mem_fnIMN6lczero9BenchmarkEFvRKSt6vectorINS1_12ThinkingInfoESaIS4_EEEEE V
_ZTSSt19_Sp_counted_deleterIPN6lczero18NetworkComputationESt14default_deleteIS1_ESaIvELN9__gnu_cxx12_Lock_policyE2EE V
_ZTSSt19_Sp_counted_deleterIPN6lczero7NetworkESt14default_deleteIS1_ESaIvELN9__gnu_cxx12_Lock_policyE2EE V
_ZTSSt19_Sp_make_shared_tag V
_ZTSSt22_Maybe_get_result_typeISt7_Mem_fnIMN6lczero12SelfPlayLoopEFvRKNS1_14TournamentInfoEEEvE V
_ZTSSt22_Maybe_get_result_typeISt7_Mem_fnIMN6lczero12SelfPlayLoopEFvRKNS1_8GameInfoEEEvE V
_ZTSSt22_Maybe_get_result_typeISt7_Mem_fnIMN6lczero7UciLoopEFvRKNS1_12BestMoveInfoEEEvE V
_ZTSSt22_Maybe_get_result_typeISt7_Mem_fnIMN6lczero7UciLoopEFvRKSt6vectorINS1_12ThinkingInfoESaIS4_EEEEvE V
_ZTSSt22_Maybe_get_result_typeISt7_Mem_fnIMN6lczero9BenchmarkEFvRKNS1_12BestMoveInfoEEEvE V
_ZTSSt22_Maybe_get_result_typeISt7_Mem_fnIMN6lczero9BenchmarkEFvRKSt6vectorINS1_12ThinkingInfoESaIS4_EEEEvE V
_ZTSSt22_Weak_result_type_implISt7_Mem_fnIMN6lczero12SelfPlayLoopEFvRKNS1_14TournamentInfoEEEE V
_ZTSSt22_Weak_result_type_implISt7_Mem_fnIMN6lczero12SelfPlayLoopEFvRKNS1_8GameInfoEEEE V
_ZTSSt22_Weak_result_type_implISt7_Mem_fnIMN6lczero7UciLoopEFvRKNS1_12BestMoveInfoEEEE V
_ZTSSt22_Weak_result_type_implISt7_Mem_fnIMN6lczero7UciLoopEFvRKSt6vectorINS1_12ThinkingInfoESaIS4_EEEEE V
_ZTSSt22_Weak_result_type_implISt7_Mem_fnIMN6lczero9BenchmarkEFvRKNS1_12BestMoveInfoEEEE V
_ZTSSt22_Weak_result_type_implISt7_Mem_fnIMN6lczero9BenchmarkEFvRKSt6vectorINS1_12ThinkingInfoESaIS4_EEEEE V
_ZTSSt23_Sp_counted_ptr_inplaceIN6lczero8LruCacheImNS0_15CachedNNRequestEEESaIS3_ELN9__gnu_cxx12_Lock_policyE2EE V
_ZTSSt23_Sp_counted_ptr_inplaceIN6lczero8NodeTreeESaIS1_ELN9__gnu_cxx12_Lock_policyE2EE V
_ZTSSt5_BindIFSt7_Mem_fnIMN6lczero12SelfPlayLoopEFvRKNS1_14TournamentInfoEEEPS2_St12_PlaceholderILi1EEEE V
_ZTSSt5_BindIFSt7_Mem_fnIMN6lczero12SelfPlayLoopEFvRKNS1_8GameInfoEEEPS2_St12_PlaceholderILi1EEEE V
_ZTSSt5_BindIFSt7_Mem_fnIMN6lczero7UciLoopEFvRKNS1_12BestMoveInfoEEEPNS1_10EngineLoopESt12_PlaceholderILi1EEEE V
_ZTSSt5_BindIFSt7_Mem_fnIMN6lczero7UciLoopEFvRKNS1_12BestMoveInfoEEEPNS1_12SelfPlayLoopESt12_PlaceholderILi1EEEE V
_ZTSSt5_BindIFSt7_Mem_fnIMN6lczero7UciLoopEFvRKSt6vectorINS1_12ThinkingInfoESaIS4_EEEEPNS1_10EngineLoopESt12_PlaceholderILi1EEEE V
_ZTSSt5_BindIFSt7_Mem_fnIMN6lczero7UciLoopEFvRKSt6vectorINS1_12ThinkingInfoESaIS4_EEEEPNS1_12SelfPlayLoopESt12_PlaceholderILi1EEEE V
_ZTSSt5_BindIFSt7_Mem_fnIMN6lczero9BenchmarkEFvRKNS1_12BestMoveInfoEEEPS2_St12_PlaceholderILi1EEEE V
_ZTSSt5_BindIFSt7_Mem_fnIMN6lczero9BenchmarkEFvRKSt6vectorINS1_12ThinkingInfoESaIS4_EEEEPS2_St12_PlaceholderILi1EEEE V
_ZTTN6lczero10LogMessageE V
_ZTTN6lczero16StderrLogMessageE V
_ZTv0_n24_N6lczero10LogMessageD0Ev T
_ZTv0_n24_N6lczero10LogMessageD1Ev T
_ZTv0_n24_N6lczero16StderrLogMessageD0Ev T
_ZTv0_n24_N6lczero16StderrLogMessageD1Ev T
_ZTVN2cl10BuildErrorE V
_ZTVN2cl5ErrorE V
_ZTVN6lczero10BoolOptionE V
_ZTVN6lczero10EngineLoopE V
_ZTVN6lczero10LogMessageE V
_ZTVN6lczero11FloatOptionE V
_ZTVN6lczero12ChoiceOptionE V
_ZTVN6lczero12SelfPlayLoopE V
_ZTVN6lczero12StringOptionE V
_ZTVN6lczero13OptionsParser6OptionE V
_ZTVN6lczero15SyzygyTablebaseE V
_ZTVN6lczero16StderrLogMessageE V
_ZTVN6lczero27SingleThreadBatchingNetworkE V
_ZTVN6lczero38SingleThreadBatchingNetworkComputationE V
_ZTVN6lczero7UciLoopE V
_ZTVN6lczero9ExceptionE V
_ZTVN6lczero9IntOptionE V
_ZTVN8pblczero13EngineVersionE V
_ZTVN8pblczero13NetworkFormatE V
_ZTVN8pblczero13Weights_LayerE V
_ZTVN8pblczero14TrainingParamsE V
_ZTVN8pblczero14Weights_SEunitE V
_ZTVN8pblczero16Weights_ResidualE V
_ZTVN8pblczero17Weights_ConvBlockE V
_ZTVN8pblczero3NetE V
_ZTVN8pblczero6FormatE V
_ZTVN8pblczero7WeightsE V
_ZTVNSt6thread10_Impl_baseE V
_ZTVSt19_Sp_counted_deleterIPN6lczero18NetworkComputationESt14default_deleteIS1_ESaIvELN9__gnu_cxx12_Lock_policyE2EE V
_ZTVSt19_Sp_counted_deleterIPN6lczero7NetworkESt14default_deleteIS1_ESaIvELN9__gnu_cxx12_Lock_policyE2EE V
_ZTVSt23_Sp_counted_ptr_inplaceIN6lczero8LruCacheImNS0_15CachedNNRequestEEESaIS3_ELN9__gnu_cxx12_Lock_policyE2EE V
_ZTVSt23_Sp_counted_ptr_inplaceIN6lczero8NodeTreeESaIS1_ELN9__gnu_cxx12_Lock_policyE2EE V
